
./mmu_l3_part.axf:     file format elf64-littleaarch64


Disassembly of section .text:

0000000000000000 <__TEXT_START>:
	.extern __bss_start
	.extern __bss_end
	.section .text.first
	.global _start
_start:
	adr	x0, vectors
       0:	1000c000 	adr	x0, 1800 <vectors>
	switch_el x1, 3f, 2f, 1f
       4:	d5384241 	mrs	x1, currentel
       8:	f100303f 	cmp	x1, #0xc
       c:	540000a0 	b.eq	20 <__TEXT_START+0x20>  // b.none
      10:	f100203f 	cmp	x1, #0x8
      14:	54000120 	b.eq	38 <__TEXT_START+0x38>  // b.none
      18:	f100103f 	cmp	x1, #0x4
      1c:	54000160 	b.eq	48 <__TEXT_START+0x48>  // b.none
3:	msr	vbar_el3, x0
      20:	d51ec000 	msr	vbar_el3, x0
	mrs	x0, scr_el3
      24:	d53e1100 	mrs	x0, scr_el3
	orr	x0, x0, #0xf			/* SCR_EL3.NS|IRQ|FIQ|EA */
      28:	b2400c00 	orr	x0, x0, #0xf
	msr	scr_el3, x0
      2c:	d51e1100 	msr	scr_el3, x0
	msr	cptr_el3, xzr			/* Enable FP/SIMD */
      30:	d51e115f 	msr	cptr_el3, xzr
	b	0f
      34:	14000008 	b	54 <__TEXT_START+0x54>
2:	msr	vbar_el2, x0
      38:	d51cc000 	msr	vbar_el2, x0
	mov	x0, #0x33ff
      3c:	d2867fe0 	mov	x0, #0x33ff                	// #13311
	msr	cptr_el2, x0			/* Enable FP/SIMD */
      40:	d51c1140 	msr	cptr_el2, x0
	b	0f
      44:	14000004 	b	54 <__TEXT_START+0x54>
1:	msr	vbar_el1, x0
      48:	d518c000 	msr	vbar_el1, x0
	mov	x0, #3 << 20
      4c:	d2a00600 	mov	x0, #0x300000              	// #3145728
	msr	cpacr_el1, x0			/* Enable FP/SIMD */
      50:	d5181040 	msr	cpacr_el1, x0
0:

	adr x0, _b_start
      54:	10000560 	adr	x0, 100 <_b_start>
	ldr x0, [x0]
      58:	f9400000 	ldr	x0, [x0]
	adr x1, _b_end
      5c:	10000d21 	adr	x1, 200 <_b_end>
	ldr x1, [x1]
      60:	f9400021 	ldr	x1, [x1]
	mov x2, #0x0
      64:	d2800002 	mov	x2, #0x0                   	// #0

0000000000000068 <clbss_l>:
clbss_l:
	str x2, [x0]
      68:	f9000002 	.word	0xf9000002
	add x0, x0, #8
      6c:	91002000 	.word	0x91002000
	cmp x0, x1
      70:	eb01001f 	.word	0xeb01001f
	ble clbss_l
      74:	54ffffad 	.word	0x54ffffad

	mrs	x10,ACTLR_EL3
      78:	d53e102a 	.word	0xd53e102a
	mov	x11,#0x3
      7c:	d280006b 	.word	0xd280006b
	lsl	x11,x11,#0xa
      80:	d376d56b 	.word	0xd376d56b
	orr	x10,x10,x11
      84:	aa0b014a 	.word	0xaa0b014a
	msr	ACTLR_EL3,x10
      88:	d51e102a 	.word	0xd51e102a

	mrs	x10,CLUSTERPARTCR_EL1
      8c:	d538f46a 	.word	0xd538f46a
	mov	x11,#0x8601
      90:	d290c02b 	.word	0xd290c02b
	orr	x10,x10,x11
      94:	aa0b014a 	.word	0xaa0b014a
	msr	CLUSTERPARTCR_EL1,x10
      98:	d518f46a 	.word	0xd518f46a

	mrs	x10,CLUSTERACPSID_EL1
      9c:	d538f42a 	.word	0xd538f42a
	mov	x11,#0x0
      a0:	d280000b 	.word	0xd280000b
	orr	x10,x10,x11
      a4:	aa0b014a 	.word	0xaa0b014a
	msr	CLUSTERACPSID_EL1,x10
      a8:	d518f42a 	.word	0xd518f42a

	mrs	x10,CLUSTERSTASHSID_EL1
      ac:	d538f44a 	.word	0xd538f44a
	mov	x11,#0x0
      b0:	d280000b 	.word	0xd280000b
	orr	x10,x10,x11
      b4:	aa0b014a 	.word	0xaa0b014a
	msr	CLUSTERSTASHSID_EL1,x10
      b8:	d518f44a 	.word	0xd518f44a

	mrs	x10,CLUSTERTHREADSIDOVR_EL1
      bc:	d538f4ea 	.word	0xd538f4ea
	mov	x11,#0x60000
      c0:	d2a000cb 	.word	0xd2a000cb
	add	x11,x11,#0x2
      c4:	9100096b 	.word	0x9100096b
	orr	x10,x10,x11
      c8:	aa0b014a 	.word	0xaa0b014a
	msr	CLUSTERTHREADSIDOVR_EL1,x10
      cc:	d518f4ea 	.word	0xd518f4ea


	msr daifclr, #0x3
      d0:	d50343ff 	.word	0xd50343ff
	adr x0, _stack_top
      d4:	10001160 	.word	0x10001160
	ldr x0, [x0]
      d8:	f9400000 	.word	0xf9400000
	mov sp, x0
      dc:	9100001f 	.word	0x9100001f
	bl	main
      e0:	940008d7 	.word	0x940008d7
      e4:	d503201f 	.word	0xd503201f
      e8:	d503201f 	.word	0xd503201f
      ec:	d503201f 	.word	0xd503201f
      f0:	d503201f 	.word	0xd503201f
      f4:	d503201f 	.word	0xd503201f
      f8:	d503201f 	.word	0xd503201f
      fc:	d503201f 	.word	0xd503201f

0000000000000100 <_b_start>:
     100:	00003f88 	.word	0x00003f88
     104:	00000000 	.word	0x00000000
     108:	d503201f 	nop
     10c:	d503201f 	nop
     110:	d503201f 	nop
     114:	d503201f 	nop
     118:	d503201f 	nop
     11c:	d503201f 	nop
     120:	d503201f 	nop
     124:	d503201f 	nop
     128:	d503201f 	nop
     12c:	d503201f 	nop
     130:	d503201f 	nop
     134:	d503201f 	nop
     138:	d503201f 	nop
     13c:	d503201f 	nop
     140:	d503201f 	nop
     144:	d503201f 	nop
     148:	d503201f 	nop
     14c:	d503201f 	nop
     150:	d503201f 	nop
     154:	d503201f 	nop
     158:	d503201f 	nop
     15c:	d503201f 	nop
     160:	d503201f 	nop
     164:	d503201f 	nop
     168:	d503201f 	nop
     16c:	d503201f 	nop
     170:	d503201f 	nop
     174:	d503201f 	nop
     178:	d503201f 	nop
     17c:	d503201f 	nop
     180:	d503201f 	nop
     184:	d503201f 	nop
     188:	d503201f 	nop
     18c:	d503201f 	nop
     190:	d503201f 	nop
     194:	d503201f 	nop
     198:	d503201f 	nop
     19c:	d503201f 	nop
     1a0:	d503201f 	nop
     1a4:	d503201f 	nop
     1a8:	d503201f 	nop
     1ac:	d503201f 	nop
     1b0:	d503201f 	nop
     1b4:	d503201f 	nop
     1b8:	d503201f 	nop
     1bc:	d503201f 	nop
     1c0:	d503201f 	nop
     1c4:	d503201f 	nop
     1c8:	d503201f 	nop
     1cc:	d503201f 	nop
     1d0:	d503201f 	nop
     1d4:	d503201f 	nop
     1d8:	d503201f 	nop
     1dc:	d503201f 	nop
     1e0:	d503201f 	nop
     1e4:	d503201f 	nop
     1e8:	d503201f 	nop
     1ec:	d503201f 	nop
     1f0:	d503201f 	nop
     1f4:	d503201f 	nop
     1f8:	d503201f 	nop
     1fc:	d503201f 	nop

0000000000000200 <_b_end>:
     200:	00003f88 	.word	0x00003f88
     204:	00000000 	.word	0x00000000
     208:	d503201f 	nop
     20c:	d503201f 	nop
     210:	d503201f 	nop
     214:	d503201f 	nop
     218:	d503201f 	nop
     21c:	d503201f 	nop
     220:	d503201f 	nop
     224:	d503201f 	nop
     228:	d503201f 	nop
     22c:	d503201f 	nop
     230:	d503201f 	nop
     234:	d503201f 	nop
     238:	d503201f 	nop
     23c:	d503201f 	nop
     240:	d503201f 	nop
     244:	d503201f 	nop
     248:	d503201f 	nop
     24c:	d503201f 	nop
     250:	d503201f 	nop
     254:	d503201f 	nop
     258:	d503201f 	nop
     25c:	d503201f 	nop
     260:	d503201f 	nop
     264:	d503201f 	nop
     268:	d503201f 	nop
     26c:	d503201f 	nop
     270:	d503201f 	nop
     274:	d503201f 	nop
     278:	d503201f 	nop
     27c:	d503201f 	nop
     280:	d503201f 	nop
     284:	d503201f 	nop
     288:	d503201f 	nop
     28c:	d503201f 	nop
     290:	d503201f 	nop
     294:	d503201f 	nop
     298:	d503201f 	nop
     29c:	d503201f 	nop
     2a0:	d503201f 	nop
     2a4:	d503201f 	nop
     2a8:	d503201f 	nop
     2ac:	d503201f 	nop
     2b0:	d503201f 	nop
     2b4:	d503201f 	nop
     2b8:	d503201f 	nop
     2bc:	d503201f 	nop
     2c0:	d503201f 	nop
     2c4:	d503201f 	nop
     2c8:	d503201f 	nop
     2cc:	d503201f 	nop
     2d0:	d503201f 	nop
     2d4:	d503201f 	nop
     2d8:	d503201f 	nop
     2dc:	d503201f 	nop
     2e0:	d503201f 	nop
     2e4:	d503201f 	nop
     2e8:	d503201f 	nop
     2ec:	d503201f 	nop
     2f0:	d503201f 	nop
     2f4:	d503201f 	nop
     2f8:	d503201f 	nop
     2fc:	d503201f 	nop

0000000000000300 <_stack_top>:
     300:	00001400 	.word	0x00001400
     304:	00000000 	.word	0x00000000
     308:	d503201f 	nop
     30c:	d503201f 	nop
     310:	d503201f 	nop
     314:	d503201f 	nop
     318:	d503201f 	nop
     31c:	d503201f 	nop
     320:	d503201f 	nop
     324:	d503201f 	nop
     328:	d503201f 	nop
     32c:	d503201f 	nop
     330:	d503201f 	nop
     334:	d503201f 	nop
     338:	d503201f 	nop
     33c:	d503201f 	nop
     340:	d503201f 	nop
     344:	d503201f 	nop
     348:	d503201f 	nop
     34c:	d503201f 	nop
     350:	d503201f 	nop
     354:	d503201f 	nop
     358:	d503201f 	nop
     35c:	d503201f 	nop
     360:	d503201f 	nop
     364:	d503201f 	nop
     368:	d503201f 	nop
     36c:	d503201f 	nop
     370:	d503201f 	nop
     374:	d503201f 	nop
     378:	d503201f 	nop
     37c:	d503201f 	nop
     380:	d503201f 	nop
     384:	d503201f 	nop
     388:	d503201f 	nop
     38c:	d503201f 	nop
     390:	d503201f 	nop
     394:	d503201f 	nop
     398:	d503201f 	nop
     39c:	d503201f 	nop
     3a0:	d503201f 	nop
     3a4:	d503201f 	nop
     3a8:	d503201f 	nop
     3ac:	d503201f 	nop
     3b0:	d503201f 	nop
     3b4:	d503201f 	nop
     3b8:	d503201f 	nop
     3bc:	d503201f 	nop
     3c0:	d503201f 	nop
     3c4:	d503201f 	nop
     3c8:	d503201f 	nop
     3cc:	d503201f 	nop
     3d0:	d503201f 	nop
     3d4:	d503201f 	nop
     3d8:	d503201f 	nop
     3dc:	d503201f 	nop
     3e0:	d503201f 	nop
     3e4:	d503201f 	nop
     3e8:	d503201f 	nop
     3ec:	d503201f 	nop
     3f0:	d503201f 	nop
     3f4:	d503201f 	nop
     3f8:	d503201f 	nop
     3fc:	d503201f 	nop
     400:	ffffffff 	.word	0xffffffff
     404:	ffffffff 	.word	0xffffffff
     408:	ffffffff 	.word	0xffffffff
     40c:	ffffffff 	.word	0xffffffff
     410:	ffffffff 	.word	0xffffffff
     414:	ffffffff 	.word	0xffffffff
     418:	ffffffff 	.word	0xffffffff
     41c:	ffffffff 	.word	0xffffffff
     420:	ffffffff 	.word	0xffffffff
     424:	ffffffff 	.word	0xffffffff
     428:	ffffffff 	.word	0xffffffff
     42c:	ffffffff 	.word	0xffffffff
     430:	ffffffff 	.word	0xffffffff
     434:	ffffffff 	.word	0xffffffff
     438:	ffffffff 	.word	0xffffffff
     43c:	ffffffff 	.word	0xffffffff
     440:	ffffffff 	.word	0xffffffff
     444:	ffffffff 	.word	0xffffffff
     448:	ffffffff 	.word	0xffffffff
     44c:	ffffffff 	.word	0xffffffff
     450:	ffffffff 	.word	0xffffffff
     454:	ffffffff 	.word	0xffffffff
     458:	ffffffff 	.word	0xffffffff
     45c:	ffffffff 	.word	0xffffffff
     460:	ffffffff 	.word	0xffffffff
     464:	ffffffff 	.word	0xffffffff
     468:	ffffffff 	.word	0xffffffff
     46c:	ffffffff 	.word	0xffffffff
     470:	ffffffff 	.word	0xffffffff
     474:	ffffffff 	.word	0xffffffff
     478:	ffffffff 	.word	0xffffffff
     47c:	ffffffff 	.word	0xffffffff
     480:	ffffffff 	.word	0xffffffff
     484:	ffffffff 	.word	0xffffffff
     488:	ffffffff 	.word	0xffffffff
     48c:	ffffffff 	.word	0xffffffff
     490:	ffffffff 	.word	0xffffffff
     494:	ffffffff 	.word	0xffffffff
     498:	ffffffff 	.word	0xffffffff
     49c:	ffffffff 	.word	0xffffffff
     4a0:	ffffffff 	.word	0xffffffff
     4a4:	ffffffff 	.word	0xffffffff
     4a8:	ffffffff 	.word	0xffffffff
     4ac:	ffffffff 	.word	0xffffffff
     4b0:	ffffffff 	.word	0xffffffff
     4b4:	ffffffff 	.word	0xffffffff
     4b8:	ffffffff 	.word	0xffffffff
     4bc:	ffffffff 	.word	0xffffffff
     4c0:	ffffffff 	.word	0xffffffff
     4c4:	ffffffff 	.word	0xffffffff
     4c8:	ffffffff 	.word	0xffffffff
     4cc:	ffffffff 	.word	0xffffffff
     4d0:	ffffffff 	.word	0xffffffff
     4d4:	ffffffff 	.word	0xffffffff
     4d8:	ffffffff 	.word	0xffffffff
     4dc:	ffffffff 	.word	0xffffffff
     4e0:	ffffffff 	.word	0xffffffff
     4e4:	ffffffff 	.word	0xffffffff
     4e8:	ffffffff 	.word	0xffffffff
     4ec:	ffffffff 	.word	0xffffffff
     4f0:	ffffffff 	.word	0xffffffff
     4f4:	ffffffff 	.word	0xffffffff
     4f8:	ffffffff 	.word	0xffffffff
     4fc:	ffffffff 	.word	0xffffffff
     500:	ffffffff 	.word	0xffffffff
     504:	ffffffff 	.word	0xffffffff
     508:	ffffffff 	.word	0xffffffff
     50c:	ffffffff 	.word	0xffffffff
     510:	ffffffff 	.word	0xffffffff
     514:	ffffffff 	.word	0xffffffff
     518:	ffffffff 	.word	0xffffffff
     51c:	ffffffff 	.word	0xffffffff
     520:	ffffffff 	.word	0xffffffff
     524:	ffffffff 	.word	0xffffffff
     528:	ffffffff 	.word	0xffffffff
     52c:	ffffffff 	.word	0xffffffff
     530:	ffffffff 	.word	0xffffffff
     534:	ffffffff 	.word	0xffffffff
     538:	ffffffff 	.word	0xffffffff
     53c:	ffffffff 	.word	0xffffffff
     540:	ffffffff 	.word	0xffffffff
     544:	ffffffff 	.word	0xffffffff
     548:	ffffffff 	.word	0xffffffff
     54c:	ffffffff 	.word	0xffffffff
     550:	ffffffff 	.word	0xffffffff
     554:	ffffffff 	.word	0xffffffff
     558:	ffffffff 	.word	0xffffffff
     55c:	ffffffff 	.word	0xffffffff
     560:	ffffffff 	.word	0xffffffff
     564:	ffffffff 	.word	0xffffffff
     568:	ffffffff 	.word	0xffffffff
     56c:	ffffffff 	.word	0xffffffff
     570:	ffffffff 	.word	0xffffffff
     574:	ffffffff 	.word	0xffffffff
     578:	ffffffff 	.word	0xffffffff
     57c:	ffffffff 	.word	0xffffffff
     580:	ffffffff 	.word	0xffffffff
     584:	ffffffff 	.word	0xffffffff
     588:	ffffffff 	.word	0xffffffff
     58c:	ffffffff 	.word	0xffffffff
     590:	ffffffff 	.word	0xffffffff
     594:	ffffffff 	.word	0xffffffff
     598:	ffffffff 	.word	0xffffffff
     59c:	ffffffff 	.word	0xffffffff
     5a0:	ffffffff 	.word	0xffffffff
     5a4:	ffffffff 	.word	0xffffffff
     5a8:	ffffffff 	.word	0xffffffff
     5ac:	ffffffff 	.word	0xffffffff
     5b0:	ffffffff 	.word	0xffffffff
     5b4:	ffffffff 	.word	0xffffffff
     5b8:	ffffffff 	.word	0xffffffff
     5bc:	ffffffff 	.word	0xffffffff
     5c0:	ffffffff 	.word	0xffffffff
     5c4:	ffffffff 	.word	0xffffffff
     5c8:	ffffffff 	.word	0xffffffff
     5cc:	ffffffff 	.word	0xffffffff
     5d0:	ffffffff 	.word	0xffffffff
     5d4:	ffffffff 	.word	0xffffffff
     5d8:	ffffffff 	.word	0xffffffff
     5dc:	ffffffff 	.word	0xffffffff
     5e0:	ffffffff 	.word	0xffffffff
     5e4:	ffffffff 	.word	0xffffffff
     5e8:	ffffffff 	.word	0xffffffff
     5ec:	ffffffff 	.word	0xffffffff
     5f0:	ffffffff 	.word	0xffffffff
     5f4:	ffffffff 	.word	0xffffffff
     5f8:	ffffffff 	.word	0xffffffff
     5fc:	ffffffff 	.word	0xffffffff
     600:	ffffffff 	.word	0xffffffff
     604:	ffffffff 	.word	0xffffffff
     608:	ffffffff 	.word	0xffffffff
     60c:	ffffffff 	.word	0xffffffff
     610:	ffffffff 	.word	0xffffffff
     614:	ffffffff 	.word	0xffffffff
     618:	ffffffff 	.word	0xffffffff
     61c:	ffffffff 	.word	0xffffffff
     620:	ffffffff 	.word	0xffffffff
     624:	ffffffff 	.word	0xffffffff
     628:	ffffffff 	.word	0xffffffff
     62c:	ffffffff 	.word	0xffffffff
     630:	ffffffff 	.word	0xffffffff
     634:	ffffffff 	.word	0xffffffff
     638:	ffffffff 	.word	0xffffffff
     63c:	ffffffff 	.word	0xffffffff
     640:	ffffffff 	.word	0xffffffff
     644:	ffffffff 	.word	0xffffffff
     648:	ffffffff 	.word	0xffffffff
     64c:	ffffffff 	.word	0xffffffff
     650:	ffffffff 	.word	0xffffffff
     654:	ffffffff 	.word	0xffffffff
     658:	ffffffff 	.word	0xffffffff
     65c:	ffffffff 	.word	0xffffffff
     660:	ffffffff 	.word	0xffffffff
     664:	ffffffff 	.word	0xffffffff
     668:	ffffffff 	.word	0xffffffff
     66c:	ffffffff 	.word	0xffffffff
     670:	ffffffff 	.word	0xffffffff
     674:	ffffffff 	.word	0xffffffff
     678:	ffffffff 	.word	0xffffffff
     67c:	ffffffff 	.word	0xffffffff
     680:	ffffffff 	.word	0xffffffff
     684:	ffffffff 	.word	0xffffffff
     688:	ffffffff 	.word	0xffffffff
     68c:	ffffffff 	.word	0xffffffff
     690:	ffffffff 	.word	0xffffffff
     694:	ffffffff 	.word	0xffffffff
     698:	ffffffff 	.word	0xffffffff
     69c:	ffffffff 	.word	0xffffffff
     6a0:	ffffffff 	.word	0xffffffff
     6a4:	ffffffff 	.word	0xffffffff
     6a8:	ffffffff 	.word	0xffffffff
     6ac:	ffffffff 	.word	0xffffffff
     6b0:	ffffffff 	.word	0xffffffff
     6b4:	ffffffff 	.word	0xffffffff
     6b8:	ffffffff 	.word	0xffffffff
     6bc:	ffffffff 	.word	0xffffffff
     6c0:	ffffffff 	.word	0xffffffff
     6c4:	ffffffff 	.word	0xffffffff
     6c8:	ffffffff 	.word	0xffffffff
     6cc:	ffffffff 	.word	0xffffffff
     6d0:	ffffffff 	.word	0xffffffff
     6d4:	ffffffff 	.word	0xffffffff
     6d8:	ffffffff 	.word	0xffffffff
     6dc:	ffffffff 	.word	0xffffffff
     6e0:	ffffffff 	.word	0xffffffff
     6e4:	ffffffff 	.word	0xffffffff
     6e8:	ffffffff 	.word	0xffffffff
     6ec:	ffffffff 	.word	0xffffffff
     6f0:	ffffffff 	.word	0xffffffff
     6f4:	ffffffff 	.word	0xffffffff
     6f8:	ffffffff 	.word	0xffffffff
     6fc:	ffffffff 	.word	0xffffffff
     700:	ffffffff 	.word	0xffffffff
     704:	ffffffff 	.word	0xffffffff
     708:	ffffffff 	.word	0xffffffff
     70c:	ffffffff 	.word	0xffffffff
     710:	ffffffff 	.word	0xffffffff
     714:	ffffffff 	.word	0xffffffff
     718:	ffffffff 	.word	0xffffffff
     71c:	ffffffff 	.word	0xffffffff
     720:	ffffffff 	.word	0xffffffff
     724:	ffffffff 	.word	0xffffffff
     728:	ffffffff 	.word	0xffffffff
     72c:	ffffffff 	.word	0xffffffff
     730:	ffffffff 	.word	0xffffffff
     734:	ffffffff 	.word	0xffffffff
     738:	ffffffff 	.word	0xffffffff
     73c:	ffffffff 	.word	0xffffffff
     740:	ffffffff 	.word	0xffffffff
     744:	ffffffff 	.word	0xffffffff
     748:	ffffffff 	.word	0xffffffff
     74c:	ffffffff 	.word	0xffffffff
     750:	ffffffff 	.word	0xffffffff
     754:	ffffffff 	.word	0xffffffff
     758:	ffffffff 	.word	0xffffffff
     75c:	ffffffff 	.word	0xffffffff
     760:	ffffffff 	.word	0xffffffff
     764:	ffffffff 	.word	0xffffffff
     768:	ffffffff 	.word	0xffffffff
     76c:	ffffffff 	.word	0xffffffff
     770:	ffffffff 	.word	0xffffffff
     774:	ffffffff 	.word	0xffffffff
     778:	ffffffff 	.word	0xffffffff
     77c:	ffffffff 	.word	0xffffffff
     780:	ffffffff 	.word	0xffffffff
     784:	ffffffff 	.word	0xffffffff
     788:	ffffffff 	.word	0xffffffff
     78c:	ffffffff 	.word	0xffffffff
     790:	ffffffff 	.word	0xffffffff
     794:	ffffffff 	.word	0xffffffff
     798:	ffffffff 	.word	0xffffffff
     79c:	ffffffff 	.word	0xffffffff
     7a0:	ffffffff 	.word	0xffffffff
     7a4:	ffffffff 	.word	0xffffffff
     7a8:	ffffffff 	.word	0xffffffff
     7ac:	ffffffff 	.word	0xffffffff
     7b0:	ffffffff 	.word	0xffffffff
     7b4:	ffffffff 	.word	0xffffffff
     7b8:	ffffffff 	.word	0xffffffff
     7bc:	ffffffff 	.word	0xffffffff
     7c0:	ffffffff 	.word	0xffffffff
     7c4:	ffffffff 	.word	0xffffffff
     7c8:	ffffffff 	.word	0xffffffff
     7cc:	ffffffff 	.word	0xffffffff
     7d0:	ffffffff 	.word	0xffffffff
     7d4:	ffffffff 	.word	0xffffffff
     7d8:	ffffffff 	.word	0xffffffff
     7dc:	ffffffff 	.word	0xffffffff
     7e0:	ffffffff 	.word	0xffffffff
     7e4:	ffffffff 	.word	0xffffffff
     7e8:	ffffffff 	.word	0xffffffff
     7ec:	ffffffff 	.word	0xffffffff
     7f0:	ffffffff 	.word	0xffffffff
     7f4:	ffffffff 	.word	0xffffffff
     7f8:	ffffffff 	.word	0xffffffff
     7fc:	ffffffff 	.word	0xffffffff
     800:	ffffffff 	.word	0xffffffff
     804:	ffffffff 	.word	0xffffffff
     808:	ffffffff 	.word	0xffffffff
     80c:	ffffffff 	.word	0xffffffff
     810:	ffffffff 	.word	0xffffffff
     814:	ffffffff 	.word	0xffffffff
     818:	ffffffff 	.word	0xffffffff
     81c:	ffffffff 	.word	0xffffffff
     820:	ffffffff 	.word	0xffffffff
     824:	ffffffff 	.word	0xffffffff
     828:	ffffffff 	.word	0xffffffff
     82c:	ffffffff 	.word	0xffffffff
     830:	ffffffff 	.word	0xffffffff
     834:	ffffffff 	.word	0xffffffff
     838:	ffffffff 	.word	0xffffffff
     83c:	ffffffff 	.word	0xffffffff
     840:	ffffffff 	.word	0xffffffff
     844:	ffffffff 	.word	0xffffffff
     848:	ffffffff 	.word	0xffffffff
     84c:	ffffffff 	.word	0xffffffff
     850:	ffffffff 	.word	0xffffffff
     854:	ffffffff 	.word	0xffffffff
     858:	ffffffff 	.word	0xffffffff
     85c:	ffffffff 	.word	0xffffffff
     860:	ffffffff 	.word	0xffffffff
     864:	ffffffff 	.word	0xffffffff
     868:	ffffffff 	.word	0xffffffff
     86c:	ffffffff 	.word	0xffffffff
     870:	ffffffff 	.word	0xffffffff
     874:	ffffffff 	.word	0xffffffff
     878:	ffffffff 	.word	0xffffffff
     87c:	ffffffff 	.word	0xffffffff
     880:	ffffffff 	.word	0xffffffff
     884:	ffffffff 	.word	0xffffffff
     888:	ffffffff 	.word	0xffffffff
     88c:	ffffffff 	.word	0xffffffff
     890:	ffffffff 	.word	0xffffffff
     894:	ffffffff 	.word	0xffffffff
     898:	ffffffff 	.word	0xffffffff
     89c:	ffffffff 	.word	0xffffffff
     8a0:	ffffffff 	.word	0xffffffff
     8a4:	ffffffff 	.word	0xffffffff
     8a8:	ffffffff 	.word	0xffffffff
     8ac:	ffffffff 	.word	0xffffffff
     8b0:	ffffffff 	.word	0xffffffff
     8b4:	ffffffff 	.word	0xffffffff
     8b8:	ffffffff 	.word	0xffffffff
     8bc:	ffffffff 	.word	0xffffffff
     8c0:	ffffffff 	.word	0xffffffff
     8c4:	ffffffff 	.word	0xffffffff
     8c8:	ffffffff 	.word	0xffffffff
     8cc:	ffffffff 	.word	0xffffffff
     8d0:	ffffffff 	.word	0xffffffff
     8d4:	ffffffff 	.word	0xffffffff
     8d8:	ffffffff 	.word	0xffffffff
     8dc:	ffffffff 	.word	0xffffffff
     8e0:	ffffffff 	.word	0xffffffff
     8e4:	ffffffff 	.word	0xffffffff
     8e8:	ffffffff 	.word	0xffffffff
     8ec:	ffffffff 	.word	0xffffffff
     8f0:	ffffffff 	.word	0xffffffff
     8f4:	ffffffff 	.word	0xffffffff
     8f8:	ffffffff 	.word	0xffffffff
     8fc:	ffffffff 	.word	0xffffffff
     900:	ffffffff 	.word	0xffffffff
     904:	ffffffff 	.word	0xffffffff
     908:	ffffffff 	.word	0xffffffff
     90c:	ffffffff 	.word	0xffffffff
     910:	ffffffff 	.word	0xffffffff
     914:	ffffffff 	.word	0xffffffff
     918:	ffffffff 	.word	0xffffffff
     91c:	ffffffff 	.word	0xffffffff
     920:	ffffffff 	.word	0xffffffff
     924:	ffffffff 	.word	0xffffffff
     928:	ffffffff 	.word	0xffffffff
     92c:	ffffffff 	.word	0xffffffff
     930:	ffffffff 	.word	0xffffffff
     934:	ffffffff 	.word	0xffffffff
     938:	ffffffff 	.word	0xffffffff
     93c:	ffffffff 	.word	0xffffffff
     940:	ffffffff 	.word	0xffffffff
     944:	ffffffff 	.word	0xffffffff
     948:	ffffffff 	.word	0xffffffff
     94c:	ffffffff 	.word	0xffffffff
     950:	ffffffff 	.word	0xffffffff
     954:	ffffffff 	.word	0xffffffff
     958:	ffffffff 	.word	0xffffffff
     95c:	ffffffff 	.word	0xffffffff
     960:	ffffffff 	.word	0xffffffff
     964:	ffffffff 	.word	0xffffffff
     968:	ffffffff 	.word	0xffffffff
     96c:	ffffffff 	.word	0xffffffff
     970:	ffffffff 	.word	0xffffffff
     974:	ffffffff 	.word	0xffffffff
     978:	ffffffff 	.word	0xffffffff
     97c:	ffffffff 	.word	0xffffffff
     980:	ffffffff 	.word	0xffffffff
     984:	ffffffff 	.word	0xffffffff
     988:	ffffffff 	.word	0xffffffff
     98c:	ffffffff 	.word	0xffffffff
     990:	ffffffff 	.word	0xffffffff
     994:	ffffffff 	.word	0xffffffff
     998:	ffffffff 	.word	0xffffffff
     99c:	ffffffff 	.word	0xffffffff
     9a0:	ffffffff 	.word	0xffffffff
     9a4:	ffffffff 	.word	0xffffffff
     9a8:	ffffffff 	.word	0xffffffff
     9ac:	ffffffff 	.word	0xffffffff
     9b0:	ffffffff 	.word	0xffffffff
     9b4:	ffffffff 	.word	0xffffffff
     9b8:	ffffffff 	.word	0xffffffff
     9bc:	ffffffff 	.word	0xffffffff
     9c0:	ffffffff 	.word	0xffffffff
     9c4:	ffffffff 	.word	0xffffffff
     9c8:	ffffffff 	.word	0xffffffff
     9cc:	ffffffff 	.word	0xffffffff
     9d0:	ffffffff 	.word	0xffffffff
     9d4:	ffffffff 	.word	0xffffffff
     9d8:	ffffffff 	.word	0xffffffff
     9dc:	ffffffff 	.word	0xffffffff
     9e0:	ffffffff 	.word	0xffffffff
     9e4:	ffffffff 	.word	0xffffffff
     9e8:	ffffffff 	.word	0xffffffff
     9ec:	ffffffff 	.word	0xffffffff
     9f0:	ffffffff 	.word	0xffffffff
     9f4:	ffffffff 	.word	0xffffffff
     9f8:	ffffffff 	.word	0xffffffff
     9fc:	ffffffff 	.word	0xffffffff
     a00:	ffffffff 	.word	0xffffffff
     a04:	ffffffff 	.word	0xffffffff
     a08:	ffffffff 	.word	0xffffffff
     a0c:	ffffffff 	.word	0xffffffff
     a10:	ffffffff 	.word	0xffffffff
     a14:	ffffffff 	.word	0xffffffff
     a18:	ffffffff 	.word	0xffffffff
     a1c:	ffffffff 	.word	0xffffffff
     a20:	ffffffff 	.word	0xffffffff
     a24:	ffffffff 	.word	0xffffffff
     a28:	ffffffff 	.word	0xffffffff
     a2c:	ffffffff 	.word	0xffffffff
     a30:	ffffffff 	.word	0xffffffff
     a34:	ffffffff 	.word	0xffffffff
     a38:	ffffffff 	.word	0xffffffff
     a3c:	ffffffff 	.word	0xffffffff
     a40:	ffffffff 	.word	0xffffffff
     a44:	ffffffff 	.word	0xffffffff
     a48:	ffffffff 	.word	0xffffffff
     a4c:	ffffffff 	.word	0xffffffff
     a50:	ffffffff 	.word	0xffffffff
     a54:	ffffffff 	.word	0xffffffff
     a58:	ffffffff 	.word	0xffffffff
     a5c:	ffffffff 	.word	0xffffffff
     a60:	ffffffff 	.word	0xffffffff
     a64:	ffffffff 	.word	0xffffffff
     a68:	ffffffff 	.word	0xffffffff
     a6c:	ffffffff 	.word	0xffffffff
     a70:	ffffffff 	.word	0xffffffff
     a74:	ffffffff 	.word	0xffffffff
     a78:	ffffffff 	.word	0xffffffff
     a7c:	ffffffff 	.word	0xffffffff
     a80:	ffffffff 	.word	0xffffffff
     a84:	ffffffff 	.word	0xffffffff
     a88:	ffffffff 	.word	0xffffffff
     a8c:	ffffffff 	.word	0xffffffff
     a90:	ffffffff 	.word	0xffffffff
     a94:	ffffffff 	.word	0xffffffff
     a98:	ffffffff 	.word	0xffffffff
     a9c:	ffffffff 	.word	0xffffffff
     aa0:	ffffffff 	.word	0xffffffff
     aa4:	ffffffff 	.word	0xffffffff
     aa8:	ffffffff 	.word	0xffffffff
     aac:	ffffffff 	.word	0xffffffff
     ab0:	ffffffff 	.word	0xffffffff
     ab4:	ffffffff 	.word	0xffffffff
     ab8:	ffffffff 	.word	0xffffffff
     abc:	ffffffff 	.word	0xffffffff
     ac0:	ffffffff 	.word	0xffffffff
     ac4:	ffffffff 	.word	0xffffffff
     ac8:	ffffffff 	.word	0xffffffff
     acc:	ffffffff 	.word	0xffffffff
     ad0:	ffffffff 	.word	0xffffffff
     ad4:	ffffffff 	.word	0xffffffff
     ad8:	ffffffff 	.word	0xffffffff
     adc:	ffffffff 	.word	0xffffffff
     ae0:	ffffffff 	.word	0xffffffff
     ae4:	ffffffff 	.word	0xffffffff
     ae8:	ffffffff 	.word	0xffffffff
     aec:	ffffffff 	.word	0xffffffff
     af0:	ffffffff 	.word	0xffffffff
     af4:	ffffffff 	.word	0xffffffff
     af8:	ffffffff 	.word	0xffffffff
     afc:	ffffffff 	.word	0xffffffff
     b00:	ffffffff 	.word	0xffffffff
     b04:	ffffffff 	.word	0xffffffff
     b08:	ffffffff 	.word	0xffffffff
     b0c:	ffffffff 	.word	0xffffffff
     b10:	ffffffff 	.word	0xffffffff
     b14:	ffffffff 	.word	0xffffffff
     b18:	ffffffff 	.word	0xffffffff
     b1c:	ffffffff 	.word	0xffffffff
     b20:	ffffffff 	.word	0xffffffff
     b24:	ffffffff 	.word	0xffffffff
     b28:	ffffffff 	.word	0xffffffff
     b2c:	ffffffff 	.word	0xffffffff
     b30:	ffffffff 	.word	0xffffffff
     b34:	ffffffff 	.word	0xffffffff
     b38:	ffffffff 	.word	0xffffffff
     b3c:	ffffffff 	.word	0xffffffff
     b40:	ffffffff 	.word	0xffffffff
     b44:	ffffffff 	.word	0xffffffff
     b48:	ffffffff 	.word	0xffffffff
     b4c:	ffffffff 	.word	0xffffffff
     b50:	ffffffff 	.word	0xffffffff
     b54:	ffffffff 	.word	0xffffffff
     b58:	ffffffff 	.word	0xffffffff
     b5c:	ffffffff 	.word	0xffffffff
     b60:	ffffffff 	.word	0xffffffff
     b64:	ffffffff 	.word	0xffffffff
     b68:	ffffffff 	.word	0xffffffff
     b6c:	ffffffff 	.word	0xffffffff
     b70:	ffffffff 	.word	0xffffffff
     b74:	ffffffff 	.word	0xffffffff
     b78:	ffffffff 	.word	0xffffffff
     b7c:	ffffffff 	.word	0xffffffff
     b80:	ffffffff 	.word	0xffffffff
     b84:	ffffffff 	.word	0xffffffff
     b88:	ffffffff 	.word	0xffffffff
     b8c:	ffffffff 	.word	0xffffffff
     b90:	ffffffff 	.word	0xffffffff
     b94:	ffffffff 	.word	0xffffffff
     b98:	ffffffff 	.word	0xffffffff
     b9c:	ffffffff 	.word	0xffffffff
     ba0:	ffffffff 	.word	0xffffffff
     ba4:	ffffffff 	.word	0xffffffff
     ba8:	ffffffff 	.word	0xffffffff
     bac:	ffffffff 	.word	0xffffffff
     bb0:	ffffffff 	.word	0xffffffff
     bb4:	ffffffff 	.word	0xffffffff
     bb8:	ffffffff 	.word	0xffffffff
     bbc:	ffffffff 	.word	0xffffffff
     bc0:	ffffffff 	.word	0xffffffff
     bc4:	ffffffff 	.word	0xffffffff
     bc8:	ffffffff 	.word	0xffffffff
     bcc:	ffffffff 	.word	0xffffffff
     bd0:	ffffffff 	.word	0xffffffff
     bd4:	ffffffff 	.word	0xffffffff
     bd8:	ffffffff 	.word	0xffffffff
     bdc:	ffffffff 	.word	0xffffffff
     be0:	ffffffff 	.word	0xffffffff
     be4:	ffffffff 	.word	0xffffffff
     be8:	ffffffff 	.word	0xffffffff
     bec:	ffffffff 	.word	0xffffffff
     bf0:	ffffffff 	.word	0xffffffff
     bf4:	ffffffff 	.word	0xffffffff
     bf8:	ffffffff 	.word	0xffffffff
     bfc:	ffffffff 	.word	0xffffffff
     c00:	ffffffff 	.word	0xffffffff
     c04:	ffffffff 	.word	0xffffffff
     c08:	ffffffff 	.word	0xffffffff
     c0c:	ffffffff 	.word	0xffffffff
     c10:	ffffffff 	.word	0xffffffff
     c14:	ffffffff 	.word	0xffffffff
     c18:	ffffffff 	.word	0xffffffff
     c1c:	ffffffff 	.word	0xffffffff
     c20:	ffffffff 	.word	0xffffffff
     c24:	ffffffff 	.word	0xffffffff
     c28:	ffffffff 	.word	0xffffffff
     c2c:	ffffffff 	.word	0xffffffff
     c30:	ffffffff 	.word	0xffffffff
     c34:	ffffffff 	.word	0xffffffff
     c38:	ffffffff 	.word	0xffffffff
     c3c:	ffffffff 	.word	0xffffffff
     c40:	ffffffff 	.word	0xffffffff
     c44:	ffffffff 	.word	0xffffffff
     c48:	ffffffff 	.word	0xffffffff
     c4c:	ffffffff 	.word	0xffffffff
     c50:	ffffffff 	.word	0xffffffff
     c54:	ffffffff 	.word	0xffffffff
     c58:	ffffffff 	.word	0xffffffff
     c5c:	ffffffff 	.word	0xffffffff
     c60:	ffffffff 	.word	0xffffffff
     c64:	ffffffff 	.word	0xffffffff
     c68:	ffffffff 	.word	0xffffffff
     c6c:	ffffffff 	.word	0xffffffff
     c70:	ffffffff 	.word	0xffffffff
     c74:	ffffffff 	.word	0xffffffff
     c78:	ffffffff 	.word	0xffffffff
     c7c:	ffffffff 	.word	0xffffffff
     c80:	ffffffff 	.word	0xffffffff
     c84:	ffffffff 	.word	0xffffffff
     c88:	ffffffff 	.word	0xffffffff
     c8c:	ffffffff 	.word	0xffffffff
     c90:	ffffffff 	.word	0xffffffff
     c94:	ffffffff 	.word	0xffffffff
     c98:	ffffffff 	.word	0xffffffff
     c9c:	ffffffff 	.word	0xffffffff
     ca0:	ffffffff 	.word	0xffffffff
     ca4:	ffffffff 	.word	0xffffffff
     ca8:	ffffffff 	.word	0xffffffff
     cac:	ffffffff 	.word	0xffffffff
     cb0:	ffffffff 	.word	0xffffffff
     cb4:	ffffffff 	.word	0xffffffff
     cb8:	ffffffff 	.word	0xffffffff
     cbc:	ffffffff 	.word	0xffffffff
     cc0:	ffffffff 	.word	0xffffffff
     cc4:	ffffffff 	.word	0xffffffff
     cc8:	ffffffff 	.word	0xffffffff
     ccc:	ffffffff 	.word	0xffffffff
     cd0:	ffffffff 	.word	0xffffffff
     cd4:	ffffffff 	.word	0xffffffff
     cd8:	ffffffff 	.word	0xffffffff
     cdc:	ffffffff 	.word	0xffffffff
     ce0:	ffffffff 	.word	0xffffffff
     ce4:	ffffffff 	.word	0xffffffff
     ce8:	ffffffff 	.word	0xffffffff
     cec:	ffffffff 	.word	0xffffffff
     cf0:	ffffffff 	.word	0xffffffff
     cf4:	ffffffff 	.word	0xffffffff
     cf8:	ffffffff 	.word	0xffffffff
     cfc:	ffffffff 	.word	0xffffffff
     d00:	ffffffff 	.word	0xffffffff
     d04:	ffffffff 	.word	0xffffffff
     d08:	ffffffff 	.word	0xffffffff
     d0c:	ffffffff 	.word	0xffffffff
     d10:	ffffffff 	.word	0xffffffff
     d14:	ffffffff 	.word	0xffffffff
     d18:	ffffffff 	.word	0xffffffff
     d1c:	ffffffff 	.word	0xffffffff
     d20:	ffffffff 	.word	0xffffffff
     d24:	ffffffff 	.word	0xffffffff
     d28:	ffffffff 	.word	0xffffffff
     d2c:	ffffffff 	.word	0xffffffff
     d30:	ffffffff 	.word	0xffffffff
     d34:	ffffffff 	.word	0xffffffff
     d38:	ffffffff 	.word	0xffffffff
     d3c:	ffffffff 	.word	0xffffffff
     d40:	ffffffff 	.word	0xffffffff
     d44:	ffffffff 	.word	0xffffffff
     d48:	ffffffff 	.word	0xffffffff
     d4c:	ffffffff 	.word	0xffffffff
     d50:	ffffffff 	.word	0xffffffff
     d54:	ffffffff 	.word	0xffffffff
     d58:	ffffffff 	.word	0xffffffff
     d5c:	ffffffff 	.word	0xffffffff
     d60:	ffffffff 	.word	0xffffffff
     d64:	ffffffff 	.word	0xffffffff
     d68:	ffffffff 	.word	0xffffffff
     d6c:	ffffffff 	.word	0xffffffff
     d70:	ffffffff 	.word	0xffffffff
     d74:	ffffffff 	.word	0xffffffff
     d78:	ffffffff 	.word	0xffffffff
     d7c:	ffffffff 	.word	0xffffffff
     d80:	ffffffff 	.word	0xffffffff
     d84:	ffffffff 	.word	0xffffffff
     d88:	ffffffff 	.word	0xffffffff
     d8c:	ffffffff 	.word	0xffffffff
     d90:	ffffffff 	.word	0xffffffff
     d94:	ffffffff 	.word	0xffffffff
     d98:	ffffffff 	.word	0xffffffff
     d9c:	ffffffff 	.word	0xffffffff
     da0:	ffffffff 	.word	0xffffffff
     da4:	ffffffff 	.word	0xffffffff
     da8:	ffffffff 	.word	0xffffffff
     dac:	ffffffff 	.word	0xffffffff
     db0:	ffffffff 	.word	0xffffffff
     db4:	ffffffff 	.word	0xffffffff
     db8:	ffffffff 	.word	0xffffffff
     dbc:	ffffffff 	.word	0xffffffff
     dc0:	ffffffff 	.word	0xffffffff
     dc4:	ffffffff 	.word	0xffffffff
     dc8:	ffffffff 	.word	0xffffffff
     dcc:	ffffffff 	.word	0xffffffff
     dd0:	ffffffff 	.word	0xffffffff
     dd4:	ffffffff 	.word	0xffffffff
     dd8:	ffffffff 	.word	0xffffffff
     ddc:	ffffffff 	.word	0xffffffff
     de0:	ffffffff 	.word	0xffffffff
     de4:	ffffffff 	.word	0xffffffff
     de8:	ffffffff 	.word	0xffffffff
     dec:	ffffffff 	.word	0xffffffff
     df0:	ffffffff 	.word	0xffffffff
     df4:	ffffffff 	.word	0xffffffff
     df8:	ffffffff 	.word	0xffffffff
     dfc:	ffffffff 	.word	0xffffffff
     e00:	ffffffff 	.word	0xffffffff
     e04:	ffffffff 	.word	0xffffffff
     e08:	ffffffff 	.word	0xffffffff
     e0c:	ffffffff 	.word	0xffffffff
     e10:	ffffffff 	.word	0xffffffff
     e14:	ffffffff 	.word	0xffffffff
     e18:	ffffffff 	.word	0xffffffff
     e1c:	ffffffff 	.word	0xffffffff
     e20:	ffffffff 	.word	0xffffffff
     e24:	ffffffff 	.word	0xffffffff
     e28:	ffffffff 	.word	0xffffffff
     e2c:	ffffffff 	.word	0xffffffff
     e30:	ffffffff 	.word	0xffffffff
     e34:	ffffffff 	.word	0xffffffff
     e38:	ffffffff 	.word	0xffffffff
     e3c:	ffffffff 	.word	0xffffffff
     e40:	ffffffff 	.word	0xffffffff
     e44:	ffffffff 	.word	0xffffffff
     e48:	ffffffff 	.word	0xffffffff
     e4c:	ffffffff 	.word	0xffffffff
     e50:	ffffffff 	.word	0xffffffff
     e54:	ffffffff 	.word	0xffffffff
     e58:	ffffffff 	.word	0xffffffff
     e5c:	ffffffff 	.word	0xffffffff
     e60:	ffffffff 	.word	0xffffffff
     e64:	ffffffff 	.word	0xffffffff
     e68:	ffffffff 	.word	0xffffffff
     e6c:	ffffffff 	.word	0xffffffff
     e70:	ffffffff 	.word	0xffffffff
     e74:	ffffffff 	.word	0xffffffff
     e78:	ffffffff 	.word	0xffffffff
     e7c:	ffffffff 	.word	0xffffffff
     e80:	ffffffff 	.word	0xffffffff
     e84:	ffffffff 	.word	0xffffffff
     e88:	ffffffff 	.word	0xffffffff
     e8c:	ffffffff 	.word	0xffffffff
     e90:	ffffffff 	.word	0xffffffff
     e94:	ffffffff 	.word	0xffffffff
     e98:	ffffffff 	.word	0xffffffff
     e9c:	ffffffff 	.word	0xffffffff
     ea0:	ffffffff 	.word	0xffffffff
     ea4:	ffffffff 	.word	0xffffffff
     ea8:	ffffffff 	.word	0xffffffff
     eac:	ffffffff 	.word	0xffffffff
     eb0:	ffffffff 	.word	0xffffffff
     eb4:	ffffffff 	.word	0xffffffff
     eb8:	ffffffff 	.word	0xffffffff
     ebc:	ffffffff 	.word	0xffffffff
     ec0:	ffffffff 	.word	0xffffffff
     ec4:	ffffffff 	.word	0xffffffff
     ec8:	ffffffff 	.word	0xffffffff
     ecc:	ffffffff 	.word	0xffffffff
     ed0:	ffffffff 	.word	0xffffffff
     ed4:	ffffffff 	.word	0xffffffff
     ed8:	ffffffff 	.word	0xffffffff
     edc:	ffffffff 	.word	0xffffffff
     ee0:	ffffffff 	.word	0xffffffff
     ee4:	ffffffff 	.word	0xffffffff
     ee8:	ffffffff 	.word	0xffffffff
     eec:	ffffffff 	.word	0xffffffff
     ef0:	ffffffff 	.word	0xffffffff
     ef4:	ffffffff 	.word	0xffffffff
     ef8:	ffffffff 	.word	0xffffffff
     efc:	ffffffff 	.word	0xffffffff
     f00:	ffffffff 	.word	0xffffffff
     f04:	ffffffff 	.word	0xffffffff
     f08:	ffffffff 	.word	0xffffffff
     f0c:	ffffffff 	.word	0xffffffff
     f10:	ffffffff 	.word	0xffffffff
     f14:	ffffffff 	.word	0xffffffff
     f18:	ffffffff 	.word	0xffffffff
     f1c:	ffffffff 	.word	0xffffffff
     f20:	ffffffff 	.word	0xffffffff
     f24:	ffffffff 	.word	0xffffffff
     f28:	ffffffff 	.word	0xffffffff
     f2c:	ffffffff 	.word	0xffffffff
     f30:	ffffffff 	.word	0xffffffff
     f34:	ffffffff 	.word	0xffffffff
     f38:	ffffffff 	.word	0xffffffff
     f3c:	ffffffff 	.word	0xffffffff
     f40:	ffffffff 	.word	0xffffffff
     f44:	ffffffff 	.word	0xffffffff
     f48:	ffffffff 	.word	0xffffffff
     f4c:	ffffffff 	.word	0xffffffff
     f50:	ffffffff 	.word	0xffffffff
     f54:	ffffffff 	.word	0xffffffff
     f58:	ffffffff 	.word	0xffffffff
     f5c:	ffffffff 	.word	0xffffffff
     f60:	ffffffff 	.word	0xffffffff
     f64:	ffffffff 	.word	0xffffffff
     f68:	ffffffff 	.word	0xffffffff
     f6c:	ffffffff 	.word	0xffffffff
     f70:	ffffffff 	.word	0xffffffff
     f74:	ffffffff 	.word	0xffffffff
     f78:	ffffffff 	.word	0xffffffff
     f7c:	ffffffff 	.word	0xffffffff
     f80:	ffffffff 	.word	0xffffffff
     f84:	ffffffff 	.word	0xffffffff
     f88:	ffffffff 	.word	0xffffffff
     f8c:	ffffffff 	.word	0xffffffff
     f90:	ffffffff 	.word	0xffffffff
     f94:	ffffffff 	.word	0xffffffff
     f98:	ffffffff 	.word	0xffffffff
     f9c:	ffffffff 	.word	0xffffffff
     fa0:	ffffffff 	.word	0xffffffff
     fa4:	ffffffff 	.word	0xffffffff
     fa8:	ffffffff 	.word	0xffffffff
     fac:	ffffffff 	.word	0xffffffff
     fb0:	ffffffff 	.word	0xffffffff
     fb4:	ffffffff 	.word	0xffffffff
     fb8:	ffffffff 	.word	0xffffffff
     fbc:	ffffffff 	.word	0xffffffff
     fc0:	ffffffff 	.word	0xffffffff
     fc4:	ffffffff 	.word	0xffffffff
     fc8:	ffffffff 	.word	0xffffffff
     fcc:	ffffffff 	.word	0xffffffff
     fd0:	ffffffff 	.word	0xffffffff
     fd4:	ffffffff 	.word	0xffffffff
     fd8:	ffffffff 	.word	0xffffffff
     fdc:	ffffffff 	.word	0xffffffff
     fe0:	ffffffff 	.word	0xffffffff
     fe4:	ffffffff 	.word	0xffffffff
     fe8:	ffffffff 	.word	0xffffffff
     fec:	ffffffff 	.word	0xffffffff
     ff0:	ffffffff 	.word	0xffffffff
     ff4:	ffffffff 	.word	0xffffffff
     ff8:	ffffffff 	.word	0xffffffff
     ffc:	ffffffff 	.word	0xffffffff
    1000:	ffffffff 	.word	0xffffffff
    1004:	ffffffff 	.word	0xffffffff
    1008:	ffffffff 	.word	0xffffffff
    100c:	ffffffff 	.word	0xffffffff
    1010:	ffffffff 	.word	0xffffffff
    1014:	ffffffff 	.word	0xffffffff
    1018:	ffffffff 	.word	0xffffffff
    101c:	ffffffff 	.word	0xffffffff
    1020:	ffffffff 	.word	0xffffffff
    1024:	ffffffff 	.word	0xffffffff
    1028:	ffffffff 	.word	0xffffffff
    102c:	ffffffff 	.word	0xffffffff
    1030:	ffffffff 	.word	0xffffffff
    1034:	ffffffff 	.word	0xffffffff
    1038:	ffffffff 	.word	0xffffffff
    103c:	ffffffff 	.word	0xffffffff
    1040:	ffffffff 	.word	0xffffffff
    1044:	ffffffff 	.word	0xffffffff
    1048:	ffffffff 	.word	0xffffffff
    104c:	ffffffff 	.word	0xffffffff
    1050:	ffffffff 	.word	0xffffffff
    1054:	ffffffff 	.word	0xffffffff
    1058:	ffffffff 	.word	0xffffffff
    105c:	ffffffff 	.word	0xffffffff
    1060:	ffffffff 	.word	0xffffffff
    1064:	ffffffff 	.word	0xffffffff
    1068:	ffffffff 	.word	0xffffffff
    106c:	ffffffff 	.word	0xffffffff
    1070:	ffffffff 	.word	0xffffffff
    1074:	ffffffff 	.word	0xffffffff
    1078:	ffffffff 	.word	0xffffffff
    107c:	ffffffff 	.word	0xffffffff
    1080:	ffffffff 	.word	0xffffffff
    1084:	ffffffff 	.word	0xffffffff
    1088:	ffffffff 	.word	0xffffffff
    108c:	ffffffff 	.word	0xffffffff
    1090:	ffffffff 	.word	0xffffffff
    1094:	ffffffff 	.word	0xffffffff
    1098:	ffffffff 	.word	0xffffffff
    109c:	ffffffff 	.word	0xffffffff
    10a0:	ffffffff 	.word	0xffffffff
    10a4:	ffffffff 	.word	0xffffffff
    10a8:	ffffffff 	.word	0xffffffff
    10ac:	ffffffff 	.word	0xffffffff
    10b0:	ffffffff 	.word	0xffffffff
    10b4:	ffffffff 	.word	0xffffffff
    10b8:	ffffffff 	.word	0xffffffff
    10bc:	ffffffff 	.word	0xffffffff
    10c0:	ffffffff 	.word	0xffffffff
    10c4:	ffffffff 	.word	0xffffffff
    10c8:	ffffffff 	.word	0xffffffff
    10cc:	ffffffff 	.word	0xffffffff
    10d0:	ffffffff 	.word	0xffffffff
    10d4:	ffffffff 	.word	0xffffffff
    10d8:	ffffffff 	.word	0xffffffff
    10dc:	ffffffff 	.word	0xffffffff
    10e0:	ffffffff 	.word	0xffffffff
    10e4:	ffffffff 	.word	0xffffffff
    10e8:	ffffffff 	.word	0xffffffff
    10ec:	ffffffff 	.word	0xffffffff
    10f0:	ffffffff 	.word	0xffffffff
    10f4:	ffffffff 	.word	0xffffffff
    10f8:	ffffffff 	.word	0xffffffff
    10fc:	ffffffff 	.word	0xffffffff
    1100:	ffffffff 	.word	0xffffffff
    1104:	ffffffff 	.word	0xffffffff
    1108:	ffffffff 	.word	0xffffffff
    110c:	ffffffff 	.word	0xffffffff
    1110:	ffffffff 	.word	0xffffffff
    1114:	ffffffff 	.word	0xffffffff
    1118:	ffffffff 	.word	0xffffffff
    111c:	ffffffff 	.word	0xffffffff
    1120:	ffffffff 	.word	0xffffffff
    1124:	ffffffff 	.word	0xffffffff
    1128:	ffffffff 	.word	0xffffffff
    112c:	ffffffff 	.word	0xffffffff
    1130:	ffffffff 	.word	0xffffffff
    1134:	ffffffff 	.word	0xffffffff
    1138:	ffffffff 	.word	0xffffffff
    113c:	ffffffff 	.word	0xffffffff
    1140:	ffffffff 	.word	0xffffffff
    1144:	ffffffff 	.word	0xffffffff
    1148:	ffffffff 	.word	0xffffffff
    114c:	ffffffff 	.word	0xffffffff
    1150:	ffffffff 	.word	0xffffffff
    1154:	ffffffff 	.word	0xffffffff
    1158:	ffffffff 	.word	0xffffffff
    115c:	ffffffff 	.word	0xffffffff
    1160:	ffffffff 	.word	0xffffffff
    1164:	ffffffff 	.word	0xffffffff
    1168:	ffffffff 	.word	0xffffffff
    116c:	ffffffff 	.word	0xffffffff
    1170:	ffffffff 	.word	0xffffffff
    1174:	ffffffff 	.word	0xffffffff
    1178:	ffffffff 	.word	0xffffffff
    117c:	ffffffff 	.word	0xffffffff
    1180:	ffffffff 	.word	0xffffffff
    1184:	ffffffff 	.word	0xffffffff
    1188:	ffffffff 	.word	0xffffffff
    118c:	ffffffff 	.word	0xffffffff
    1190:	ffffffff 	.word	0xffffffff
    1194:	ffffffff 	.word	0xffffffff
    1198:	ffffffff 	.word	0xffffffff
    119c:	ffffffff 	.word	0xffffffff
    11a0:	ffffffff 	.word	0xffffffff
    11a4:	ffffffff 	.word	0xffffffff
    11a8:	ffffffff 	.word	0xffffffff
    11ac:	ffffffff 	.word	0xffffffff
    11b0:	ffffffff 	.word	0xffffffff
    11b4:	ffffffff 	.word	0xffffffff
    11b8:	ffffffff 	.word	0xffffffff
    11bc:	ffffffff 	.word	0xffffffff
    11c0:	ffffffff 	.word	0xffffffff
    11c4:	ffffffff 	.word	0xffffffff
    11c8:	ffffffff 	.word	0xffffffff
    11cc:	ffffffff 	.word	0xffffffff
    11d0:	ffffffff 	.word	0xffffffff
    11d4:	ffffffff 	.word	0xffffffff
    11d8:	ffffffff 	.word	0xffffffff
    11dc:	ffffffff 	.word	0xffffffff
    11e0:	ffffffff 	.word	0xffffffff
    11e4:	ffffffff 	.word	0xffffffff
    11e8:	ffffffff 	.word	0xffffffff
    11ec:	ffffffff 	.word	0xffffffff
    11f0:	ffffffff 	.word	0xffffffff
    11f4:	ffffffff 	.word	0xffffffff
    11f8:	ffffffff 	.word	0xffffffff
    11fc:	ffffffff 	.word	0xffffffff
    1200:	ffffffff 	.word	0xffffffff
    1204:	ffffffff 	.word	0xffffffff
    1208:	ffffffff 	.word	0xffffffff
    120c:	ffffffff 	.word	0xffffffff
    1210:	ffffffff 	.word	0xffffffff
    1214:	ffffffff 	.word	0xffffffff
    1218:	ffffffff 	.word	0xffffffff
    121c:	ffffffff 	.word	0xffffffff
    1220:	ffffffff 	.word	0xffffffff
    1224:	ffffffff 	.word	0xffffffff
    1228:	ffffffff 	.word	0xffffffff
    122c:	ffffffff 	.word	0xffffffff
    1230:	ffffffff 	.word	0xffffffff
    1234:	ffffffff 	.word	0xffffffff
    1238:	ffffffff 	.word	0xffffffff
    123c:	ffffffff 	.word	0xffffffff
    1240:	ffffffff 	.word	0xffffffff
    1244:	ffffffff 	.word	0xffffffff
    1248:	ffffffff 	.word	0xffffffff
    124c:	ffffffff 	.word	0xffffffff
    1250:	ffffffff 	.word	0xffffffff
    1254:	ffffffff 	.word	0xffffffff
    1258:	ffffffff 	.word	0xffffffff
    125c:	ffffffff 	.word	0xffffffff
    1260:	ffffffff 	.word	0xffffffff
    1264:	ffffffff 	.word	0xffffffff
    1268:	ffffffff 	.word	0xffffffff
    126c:	ffffffff 	.word	0xffffffff
    1270:	ffffffff 	.word	0xffffffff
    1274:	ffffffff 	.word	0xffffffff
    1278:	ffffffff 	.word	0xffffffff
    127c:	ffffffff 	.word	0xffffffff
    1280:	ffffffff 	.word	0xffffffff
    1284:	ffffffff 	.word	0xffffffff
    1288:	ffffffff 	.word	0xffffffff
    128c:	ffffffff 	.word	0xffffffff
    1290:	ffffffff 	.word	0xffffffff
    1294:	ffffffff 	.word	0xffffffff
    1298:	ffffffff 	.word	0xffffffff
    129c:	ffffffff 	.word	0xffffffff
    12a0:	ffffffff 	.word	0xffffffff
    12a4:	ffffffff 	.word	0xffffffff
    12a8:	ffffffff 	.word	0xffffffff
    12ac:	ffffffff 	.word	0xffffffff
    12b0:	ffffffff 	.word	0xffffffff
    12b4:	ffffffff 	.word	0xffffffff
    12b8:	ffffffff 	.word	0xffffffff
    12bc:	ffffffff 	.word	0xffffffff
    12c0:	ffffffff 	.word	0xffffffff
    12c4:	ffffffff 	.word	0xffffffff
    12c8:	ffffffff 	.word	0xffffffff
    12cc:	ffffffff 	.word	0xffffffff
    12d0:	ffffffff 	.word	0xffffffff
    12d4:	ffffffff 	.word	0xffffffff
    12d8:	ffffffff 	.word	0xffffffff
    12dc:	ffffffff 	.word	0xffffffff
    12e0:	ffffffff 	.word	0xffffffff
    12e4:	ffffffff 	.word	0xffffffff
    12e8:	ffffffff 	.word	0xffffffff
    12ec:	ffffffff 	.word	0xffffffff
    12f0:	ffffffff 	.word	0xffffffff
    12f4:	ffffffff 	.word	0xffffffff
    12f8:	ffffffff 	.word	0xffffffff
    12fc:	ffffffff 	.word	0xffffffff
    1300:	ffffffff 	.word	0xffffffff
    1304:	ffffffff 	.word	0xffffffff
    1308:	ffffffff 	.word	0xffffffff
    130c:	ffffffff 	.word	0xffffffff
    1310:	ffffffff 	.word	0xffffffff
    1314:	ffffffff 	.word	0xffffffff
    1318:	ffffffff 	.word	0xffffffff
    131c:	ffffffff 	.word	0xffffffff
    1320:	ffffffff 	.word	0xffffffff
    1324:	ffffffff 	.word	0xffffffff
    1328:	ffffffff 	.word	0xffffffff
    132c:	ffffffff 	.word	0xffffffff
    1330:	ffffffff 	.word	0xffffffff
    1334:	ffffffff 	.word	0xffffffff
    1338:	ffffffff 	.word	0xffffffff
    133c:	ffffffff 	.word	0xffffffff
    1340:	ffffffff 	.word	0xffffffff
    1344:	ffffffff 	.word	0xffffffff
    1348:	ffffffff 	.word	0xffffffff
    134c:	ffffffff 	.word	0xffffffff
    1350:	ffffffff 	.word	0xffffffff
    1354:	ffffffff 	.word	0xffffffff
    1358:	ffffffff 	.word	0xffffffff
    135c:	ffffffff 	.word	0xffffffff
    1360:	ffffffff 	.word	0xffffffff
    1364:	ffffffff 	.word	0xffffffff
    1368:	ffffffff 	.word	0xffffffff
    136c:	ffffffff 	.word	0xffffffff
    1370:	ffffffff 	.word	0xffffffff
    1374:	ffffffff 	.word	0xffffffff
    1378:	ffffffff 	.word	0xffffffff
    137c:	ffffffff 	.word	0xffffffff
    1380:	ffffffff 	.word	0xffffffff
    1384:	ffffffff 	.word	0xffffffff
    1388:	ffffffff 	.word	0xffffffff
    138c:	ffffffff 	.word	0xffffffff
    1390:	ffffffff 	.word	0xffffffff
    1394:	ffffffff 	.word	0xffffffff
    1398:	ffffffff 	.word	0xffffffff
    139c:	ffffffff 	.word	0xffffffff
    13a0:	ffffffff 	.word	0xffffffff
    13a4:	ffffffff 	.word	0xffffffff
    13a8:	ffffffff 	.word	0xffffffff
    13ac:	ffffffff 	.word	0xffffffff
    13b0:	ffffffff 	.word	0xffffffff
    13b4:	ffffffff 	.word	0xffffffff
    13b8:	ffffffff 	.word	0xffffffff
    13bc:	ffffffff 	.word	0xffffffff
    13c0:	ffffffff 	.word	0xffffffff
    13c4:	ffffffff 	.word	0xffffffff
    13c8:	ffffffff 	.word	0xffffffff
    13cc:	ffffffff 	.word	0xffffffff
    13d0:	ffffffff 	.word	0xffffffff
    13d4:	ffffffff 	.word	0xffffffff
    13d8:	ffffffff 	.word	0xffffffff
    13dc:	ffffffff 	.word	0xffffffff
    13e0:	ffffffff 	.word	0xffffffff
    13e4:	ffffffff 	.word	0xffffffff
    13e8:	ffffffff 	.word	0xffffffff
    13ec:	ffffffff 	.word	0xffffffff
    13f0:	ffffffff 	.word	0xffffffff
    13f4:	ffffffff 	.word	0xffffffff
    13f8:	ffffffff 	.word	0xffffffff
    13fc:	ffffffff 	.word	0xffffffff

0000000000001400 <__stack_top>:
	...

0000000000001800 <vectors>:
 */
	.align	11
	.globl	vectors
vectors:
	.align	7
	b	_do_bad_sync	/* Current EL Synchronous Thread */
    1800:	140000e1 	b	1b84 <_do_bad_sync>
    1804:	d503201f 	nop
    1808:	d503201f 	nop
    180c:	d503201f 	nop
    1810:	d503201f 	nop
    1814:	d503201f 	nop
    1818:	d503201f 	nop
    181c:	d503201f 	nop
    1820:	d503201f 	nop
    1824:	d503201f 	nop
    1828:	d503201f 	nop
    182c:	d503201f 	nop
    1830:	d503201f 	nop
    1834:	d503201f 	nop
    1838:	d503201f 	nop
    183c:	d503201f 	nop
    1840:	d503201f 	nop
    1844:	d503201f 	nop
    1848:	d503201f 	nop
    184c:	d503201f 	nop
    1850:	d503201f 	nop
    1854:	d503201f 	nop
    1858:	d503201f 	nop
    185c:	d503201f 	nop
    1860:	d503201f 	nop
    1864:	d503201f 	nop
    1868:	d503201f 	nop
    186c:	d503201f 	nop
    1870:	d503201f 	nop
    1874:	d503201f 	nop
    1878:	d503201f 	nop
    187c:	d503201f 	nop

	.align	7
	b	_do_bad_irq	/* Current EL IRQ Thread */
    1880:	140000e4 	b	1c10 <_do_bad_irq>
    1884:	d503201f 	nop
    1888:	d503201f 	nop
    188c:	d503201f 	nop
    1890:	d503201f 	nop
    1894:	d503201f 	nop
    1898:	d503201f 	nop
    189c:	d503201f 	nop
    18a0:	d503201f 	nop
    18a4:	d503201f 	nop
    18a8:	d503201f 	nop
    18ac:	d503201f 	nop
    18b0:	d503201f 	nop
    18b4:	d503201f 	nop
    18b8:	d503201f 	nop
    18bc:	d503201f 	nop
    18c0:	d503201f 	nop
    18c4:	d503201f 	nop
    18c8:	d503201f 	nop
    18cc:	d503201f 	nop
    18d0:	d503201f 	nop
    18d4:	d503201f 	nop
    18d8:	d503201f 	nop
    18dc:	d503201f 	nop
    18e0:	d503201f 	nop
    18e4:	d503201f 	nop
    18e8:	d503201f 	nop
    18ec:	d503201f 	nop
    18f0:	d503201f 	nop
    18f4:	d503201f 	nop
    18f8:	d503201f 	nop
    18fc:	d503201f 	nop

	.align	7
	b	_do_bad_fiq	/* Current EL FIQ Thread */
    1900:	140000e7 	b	1c9c <_do_bad_fiq>
    1904:	d503201f 	nop
    1908:	d503201f 	nop
    190c:	d503201f 	nop
    1910:	d503201f 	nop
    1914:	d503201f 	nop
    1918:	d503201f 	nop
    191c:	d503201f 	nop
    1920:	d503201f 	nop
    1924:	d503201f 	nop
    1928:	d503201f 	nop
    192c:	d503201f 	nop
    1930:	d503201f 	nop
    1934:	d503201f 	nop
    1938:	d503201f 	nop
    193c:	d503201f 	nop
    1940:	d503201f 	nop
    1944:	d503201f 	nop
    1948:	d503201f 	nop
    194c:	d503201f 	nop
    1950:	d503201f 	nop
    1954:	d503201f 	nop
    1958:	d503201f 	nop
    195c:	d503201f 	nop
    1960:	d503201f 	nop
    1964:	d503201f 	nop
    1968:	d503201f 	nop
    196c:	d503201f 	nop
    1970:	d503201f 	nop
    1974:	d503201f 	nop
    1978:	d503201f 	nop
    197c:	d503201f 	nop

	.align	7
	b	_do_bad_error	/* Current EL Error Thread */
    1980:	140000ea 	b	1d28 <_do_bad_error>
    1984:	d503201f 	nop
    1988:	d503201f 	nop
    198c:	d503201f 	nop
    1990:	d503201f 	nop
    1994:	d503201f 	nop
    1998:	d503201f 	nop
    199c:	d503201f 	nop
    19a0:	d503201f 	nop
    19a4:	d503201f 	nop
    19a8:	d503201f 	nop
    19ac:	d503201f 	nop
    19b0:	d503201f 	nop
    19b4:	d503201f 	nop
    19b8:	d503201f 	nop
    19bc:	d503201f 	nop
    19c0:	d503201f 	nop
    19c4:	d503201f 	nop
    19c8:	d503201f 	nop
    19cc:	d503201f 	nop
    19d0:	d503201f 	nop
    19d4:	d503201f 	nop
    19d8:	d503201f 	nop
    19dc:	d503201f 	nop
    19e0:	d503201f 	nop
    19e4:	d503201f 	nop
    19e8:	d503201f 	nop
    19ec:	d503201f 	nop
    19f0:	d503201f 	nop
    19f4:	d503201f 	nop
    19f8:	d503201f 	nop
    19fc:	d503201f 	nop

	.align	7
	b	_do_sync	/* Current EL Synchronous Handler */
    1a00:	140000ed 	b	1db4 <_do_sync>
    1a04:	d503201f 	nop
    1a08:	d503201f 	nop
    1a0c:	d503201f 	nop
    1a10:	d503201f 	nop
    1a14:	d503201f 	nop
    1a18:	d503201f 	nop
    1a1c:	d503201f 	nop
    1a20:	d503201f 	nop
    1a24:	d503201f 	nop
    1a28:	d503201f 	nop
    1a2c:	d503201f 	nop
    1a30:	d503201f 	nop
    1a34:	d503201f 	nop
    1a38:	d503201f 	nop
    1a3c:	d503201f 	nop
    1a40:	d503201f 	nop
    1a44:	d503201f 	nop
    1a48:	d503201f 	nop
    1a4c:	d503201f 	nop
    1a50:	d503201f 	nop
    1a54:	d503201f 	nop
    1a58:	d503201f 	nop
    1a5c:	d503201f 	nop
    1a60:	d503201f 	nop
    1a64:	d503201f 	nop
    1a68:	d503201f 	nop
    1a6c:	d503201f 	nop
    1a70:	d503201f 	nop
    1a74:	d503201f 	nop
    1a78:	d503201f 	nop
    1a7c:	d503201f 	nop

	.align	7
	b	_do_irq		/* Current EL IRQ Handler */
    1a80:	140000f0 	b	1e40 <_do_irq>
    1a84:	d503201f 	nop
    1a88:	d503201f 	nop
    1a8c:	d503201f 	nop
    1a90:	d503201f 	nop
    1a94:	d503201f 	nop
    1a98:	d503201f 	nop
    1a9c:	d503201f 	nop
    1aa0:	d503201f 	nop
    1aa4:	d503201f 	nop
    1aa8:	d503201f 	nop
    1aac:	d503201f 	nop
    1ab0:	d503201f 	nop
    1ab4:	d503201f 	nop
    1ab8:	d503201f 	nop
    1abc:	d503201f 	nop
    1ac0:	d503201f 	nop
    1ac4:	d503201f 	nop
    1ac8:	d503201f 	nop
    1acc:	d503201f 	nop
    1ad0:	d503201f 	nop
    1ad4:	d503201f 	nop
    1ad8:	d503201f 	nop
    1adc:	d503201f 	nop
    1ae0:	d503201f 	nop
    1ae4:	d503201f 	nop
    1ae8:	d503201f 	nop
    1aec:	d503201f 	nop
    1af0:	d503201f 	nop
    1af4:	d503201f 	nop
    1af8:	d503201f 	nop
    1afc:	d503201f 	nop

	.align	7
	b	_do_fiq		/* Current EL FIQ Handler */
    1b00:	140000f4 	b	1ed0 <_do_fiq>
    1b04:	d503201f 	nop
    1b08:	d503201f 	nop
    1b0c:	d503201f 	nop
    1b10:	d503201f 	nop
    1b14:	d503201f 	nop
    1b18:	d503201f 	nop
    1b1c:	d503201f 	nop
    1b20:	d503201f 	nop
    1b24:	d503201f 	nop
    1b28:	d503201f 	nop
    1b2c:	d503201f 	nop
    1b30:	d503201f 	nop
    1b34:	d503201f 	nop
    1b38:	d503201f 	nop
    1b3c:	d503201f 	nop
    1b40:	d503201f 	nop
    1b44:	d503201f 	nop
    1b48:	d503201f 	nop
    1b4c:	d503201f 	nop
    1b50:	d503201f 	nop
    1b54:	d503201f 	nop
    1b58:	d503201f 	nop
    1b5c:	d503201f 	nop
    1b60:	d503201f 	nop
    1b64:	d503201f 	nop
    1b68:	d503201f 	nop
    1b6c:	d503201f 	nop
    1b70:	d503201f 	nop
    1b74:	d503201f 	nop
    1b78:	d503201f 	nop
    1b7c:	d503201f 	nop

	.align	7
	b	_do_error	/* Current EL Error Handler */
    1b80:	140000f7 	b	1f5c <_do_error>

0000000000001b84 <_do_bad_sync>:


_do_bad_sync:
	exception_entry
    1b84:	a9bf7bfd 	stp	x29, x30, [sp, #-16]!
    1b88:	a9bf73fb 	stp	x27, x28, [sp, #-16]!
    1b8c:	a9bf6bf9 	stp	x25, x26, [sp, #-16]!
    1b90:	a9bf63f7 	stp	x23, x24, [sp, #-16]!
    1b94:	a9bf5bf5 	stp	x21, x22, [sp, #-16]!
    1b98:	a9bf53f3 	stp	x19, x20, [sp, #-16]!
    1b9c:	a9bf4bf1 	stp	x17, x18, [sp, #-16]!
    1ba0:	a9bf43ef 	stp	x15, x16, [sp, #-16]!
    1ba4:	a9bf3bed 	stp	x13, x14, [sp, #-16]!
    1ba8:	a9bf33eb 	stp	x11, x12, [sp, #-16]!
    1bac:	a9bf2be9 	stp	x9, x10, [sp, #-16]!
    1bb0:	a9bf23e7 	stp	x7, x8, [sp, #-16]!
    1bb4:	a9bf1be5 	stp	x5, x6, [sp, #-16]!
    1bb8:	a9bf13e3 	stp	x3, x4, [sp, #-16]!
    1bbc:	a9bf0be1 	stp	x1, x2, [sp, #-16]!
    1bc0:	d538424b 	mrs	x11, currentel
    1bc4:	f100317f 	cmp	x11, #0xc
    1bc8:	540000a0 	b.eq	1bdc <_do_bad_sync+0x58>  // b.none
    1bcc:	f100217f 	cmp	x11, #0x8
    1bd0:	540000c0 	b.eq	1be8 <_do_bad_sync+0x64>  // b.none
    1bd4:	f100117f 	cmp	x11, #0x4
    1bd8:	540000e0 	b.eq	1bf4 <_do_bad_sync+0x70>  // b.none
    1bdc:	d53e5201 	mrs	x1, esr_el3
    1be0:	d53e4022 	mrs	x2, elr_el3
    1be4:	14000006 	b	1bfc <_do_bad_sync+0x78>
    1be8:	d53c5201 	mrs	x1, esr_el2
    1bec:	d53c4022 	mrs	x2, elr_el2
    1bf0:	14000003 	b	1bfc <_do_bad_sync+0x78>
    1bf4:	d5385201 	mrs	x1, esr_el1
    1bf8:	d5384022 	mrs	x2, elr_el1
    1bfc:	a9bf03e2 	stp	x2, x0, [sp, #-16]!
    1c00:	910003e0 	mov	x0, sp
	mov	x1,#0x1
    1c04:	d2800021 	mov	x1, #0x1                   	// #1
	b	whl
    1c08:	140000f8 	b	1fe8 <whl>
	b	exception_exit
    1c0c:	140000f8 	b	1fec <exception_exit>

0000000000001c10 <_do_bad_irq>:

_do_bad_irq:
	exception_entry
    1c10:	a9bf7bfd 	stp	x29, x30, [sp, #-16]!
    1c14:	a9bf73fb 	stp	x27, x28, [sp, #-16]!
    1c18:	a9bf6bf9 	stp	x25, x26, [sp, #-16]!
    1c1c:	a9bf63f7 	stp	x23, x24, [sp, #-16]!
    1c20:	a9bf5bf5 	stp	x21, x22, [sp, #-16]!
    1c24:	a9bf53f3 	stp	x19, x20, [sp, #-16]!
    1c28:	a9bf4bf1 	stp	x17, x18, [sp, #-16]!
    1c2c:	a9bf43ef 	stp	x15, x16, [sp, #-16]!
    1c30:	a9bf3bed 	stp	x13, x14, [sp, #-16]!
    1c34:	a9bf33eb 	stp	x11, x12, [sp, #-16]!
    1c38:	a9bf2be9 	stp	x9, x10, [sp, #-16]!
    1c3c:	a9bf23e7 	stp	x7, x8, [sp, #-16]!
    1c40:	a9bf1be5 	stp	x5, x6, [sp, #-16]!
    1c44:	a9bf13e3 	stp	x3, x4, [sp, #-16]!
    1c48:	a9bf0be1 	stp	x1, x2, [sp, #-16]!
    1c4c:	d538424b 	mrs	x11, currentel
    1c50:	f100317f 	cmp	x11, #0xc
    1c54:	540000a0 	b.eq	1c68 <_do_bad_irq+0x58>  // b.none
    1c58:	f100217f 	cmp	x11, #0x8
    1c5c:	540000c0 	b.eq	1c74 <_do_bad_irq+0x64>  // b.none
    1c60:	f100117f 	cmp	x11, #0x4
    1c64:	540000e0 	b.eq	1c80 <_do_bad_irq+0x70>  // b.none
    1c68:	d53e5201 	mrs	x1, esr_el3
    1c6c:	d53e4022 	mrs	x2, elr_el3
    1c70:	14000006 	b	1c88 <_do_bad_irq+0x78>
    1c74:	d53c5201 	mrs	x1, esr_el2
    1c78:	d53c4022 	mrs	x2, elr_el2
    1c7c:	14000003 	b	1c88 <_do_bad_irq+0x78>
    1c80:	d5385201 	mrs	x1, esr_el1
    1c84:	d5384022 	mrs	x2, elr_el1
    1c88:	a9bf03e2 	stp	x2, x0, [sp, #-16]!
    1c8c:	910003e0 	mov	x0, sp
	mov	x1,#0x2
    1c90:	d2800041 	mov	x1, #0x2                   	// #2
	b	whl
    1c94:	140000d5 	b	1fe8 <whl>
	b	exception_exit
    1c98:	140000d5 	b	1fec <exception_exit>

0000000000001c9c <_do_bad_fiq>:

_do_bad_fiq:
	exception_entry
    1c9c:	a9bf7bfd 	stp	x29, x30, [sp, #-16]!
    1ca0:	a9bf73fb 	stp	x27, x28, [sp, #-16]!
    1ca4:	a9bf6bf9 	stp	x25, x26, [sp, #-16]!
    1ca8:	a9bf63f7 	stp	x23, x24, [sp, #-16]!
    1cac:	a9bf5bf5 	stp	x21, x22, [sp, #-16]!
    1cb0:	a9bf53f3 	stp	x19, x20, [sp, #-16]!
    1cb4:	a9bf4bf1 	stp	x17, x18, [sp, #-16]!
    1cb8:	a9bf43ef 	stp	x15, x16, [sp, #-16]!
    1cbc:	a9bf3bed 	stp	x13, x14, [sp, #-16]!
    1cc0:	a9bf33eb 	stp	x11, x12, [sp, #-16]!
    1cc4:	a9bf2be9 	stp	x9, x10, [sp, #-16]!
    1cc8:	a9bf23e7 	stp	x7, x8, [sp, #-16]!
    1ccc:	a9bf1be5 	stp	x5, x6, [sp, #-16]!
    1cd0:	a9bf13e3 	stp	x3, x4, [sp, #-16]!
    1cd4:	a9bf0be1 	stp	x1, x2, [sp, #-16]!
    1cd8:	d538424b 	mrs	x11, currentel
    1cdc:	f100317f 	cmp	x11, #0xc
    1ce0:	540000a0 	b.eq	1cf4 <_do_bad_fiq+0x58>  // b.none
    1ce4:	f100217f 	cmp	x11, #0x8
    1ce8:	540000c0 	b.eq	1d00 <_do_bad_fiq+0x64>  // b.none
    1cec:	f100117f 	cmp	x11, #0x4
    1cf0:	540000e0 	b.eq	1d0c <_do_bad_fiq+0x70>  // b.none
    1cf4:	d53e5201 	mrs	x1, esr_el3
    1cf8:	d53e4022 	mrs	x2, elr_el3
    1cfc:	14000006 	b	1d14 <_do_bad_fiq+0x78>
    1d00:	d53c5201 	mrs	x1, esr_el2
    1d04:	d53c4022 	mrs	x2, elr_el2
    1d08:	14000003 	b	1d14 <_do_bad_fiq+0x78>
    1d0c:	d5385201 	mrs	x1, esr_el1
    1d10:	d5384022 	mrs	x2, elr_el1
    1d14:	a9bf03e2 	stp	x2, x0, [sp, #-16]!
    1d18:	910003e0 	mov	x0, sp
	mov	x1,#0x3
    1d1c:	d2800061 	mov	x1, #0x3                   	// #3
	b	whl
    1d20:	140000b2 	b	1fe8 <whl>
	b	exception_exit
    1d24:	140000b2 	b	1fec <exception_exit>

0000000000001d28 <_do_bad_error>:

_do_bad_error:
	exception_entry
    1d28:	a9bf7bfd 	stp	x29, x30, [sp, #-16]!
    1d2c:	a9bf73fb 	stp	x27, x28, [sp, #-16]!
    1d30:	a9bf6bf9 	stp	x25, x26, [sp, #-16]!
    1d34:	a9bf63f7 	stp	x23, x24, [sp, #-16]!
    1d38:	a9bf5bf5 	stp	x21, x22, [sp, #-16]!
    1d3c:	a9bf53f3 	stp	x19, x20, [sp, #-16]!
    1d40:	a9bf4bf1 	stp	x17, x18, [sp, #-16]!
    1d44:	a9bf43ef 	stp	x15, x16, [sp, #-16]!
    1d48:	a9bf3bed 	stp	x13, x14, [sp, #-16]!
    1d4c:	a9bf33eb 	stp	x11, x12, [sp, #-16]!
    1d50:	a9bf2be9 	stp	x9, x10, [sp, #-16]!
    1d54:	a9bf23e7 	stp	x7, x8, [sp, #-16]!
    1d58:	a9bf1be5 	stp	x5, x6, [sp, #-16]!
    1d5c:	a9bf13e3 	stp	x3, x4, [sp, #-16]!
    1d60:	a9bf0be1 	stp	x1, x2, [sp, #-16]!
    1d64:	d538424b 	mrs	x11, currentel
    1d68:	f100317f 	cmp	x11, #0xc
    1d6c:	540000a0 	b.eq	1d80 <_do_bad_error+0x58>  // b.none
    1d70:	f100217f 	cmp	x11, #0x8
    1d74:	540000c0 	b.eq	1d8c <_do_bad_error+0x64>  // b.none
    1d78:	f100117f 	cmp	x11, #0x4
    1d7c:	540000e0 	b.eq	1d98 <_do_bad_error+0x70>  // b.none
    1d80:	d53e5201 	mrs	x1, esr_el3
    1d84:	d53e4022 	mrs	x2, elr_el3
    1d88:	14000006 	b	1da0 <_do_bad_error+0x78>
    1d8c:	d53c5201 	mrs	x1, esr_el2
    1d90:	d53c4022 	mrs	x2, elr_el2
    1d94:	14000003 	b	1da0 <_do_bad_error+0x78>
    1d98:	d5385201 	mrs	x1, esr_el1
    1d9c:	d5384022 	mrs	x2, elr_el1
    1da0:	a9bf03e2 	stp	x2, x0, [sp, #-16]!
    1da4:	910003e0 	mov	x0, sp
	mov	x1,#0x4
    1da8:	d2800081 	mov	x1, #0x4                   	// #4
	b	whl
    1dac:	1400008f 	b	1fe8 <whl>
	b	exception_exit
    1db0:	1400008f 	b	1fec <exception_exit>

0000000000001db4 <_do_sync>:

_do_sync:
	exception_entry
    1db4:	a9bf7bfd 	stp	x29, x30, [sp, #-16]!
    1db8:	a9bf73fb 	stp	x27, x28, [sp, #-16]!
    1dbc:	a9bf6bf9 	stp	x25, x26, [sp, #-16]!
    1dc0:	a9bf63f7 	stp	x23, x24, [sp, #-16]!
    1dc4:	a9bf5bf5 	stp	x21, x22, [sp, #-16]!
    1dc8:	a9bf53f3 	stp	x19, x20, [sp, #-16]!
    1dcc:	a9bf4bf1 	stp	x17, x18, [sp, #-16]!
    1dd0:	a9bf43ef 	stp	x15, x16, [sp, #-16]!
    1dd4:	a9bf3bed 	stp	x13, x14, [sp, #-16]!
    1dd8:	a9bf33eb 	stp	x11, x12, [sp, #-16]!
    1ddc:	a9bf2be9 	stp	x9, x10, [sp, #-16]!
    1de0:	a9bf23e7 	stp	x7, x8, [sp, #-16]!
    1de4:	a9bf1be5 	stp	x5, x6, [sp, #-16]!
    1de8:	a9bf13e3 	stp	x3, x4, [sp, #-16]!
    1dec:	a9bf0be1 	stp	x1, x2, [sp, #-16]!
    1df0:	d538424b 	mrs	x11, currentel
    1df4:	f100317f 	cmp	x11, #0xc
    1df8:	540000a0 	b.eq	1e0c <_do_sync+0x58>  // b.none
    1dfc:	f100217f 	cmp	x11, #0x8
    1e00:	540000c0 	b.eq	1e18 <_do_sync+0x64>  // b.none
    1e04:	f100117f 	cmp	x11, #0x4
    1e08:	540000e0 	b.eq	1e24 <_do_sync+0x70>  // b.none
    1e0c:	d53e5201 	mrs	x1, esr_el3
    1e10:	d53e4022 	mrs	x2, elr_el3
    1e14:	14000006 	b	1e2c <_do_sync+0x78>
    1e18:	d53c5201 	mrs	x1, esr_el2
    1e1c:	d53c4022 	mrs	x2, elr_el2
    1e20:	14000003 	b	1e2c <_do_sync+0x78>
    1e24:	d5385201 	mrs	x1, esr_el1
    1e28:	d5384022 	mrs	x2, elr_el1
    1e2c:	a9bf03e2 	stp	x2, x0, [sp, #-16]!
    1e30:	910003e0 	mov	x0, sp
	mov	x1,#0x5
    1e34:	d28000a1 	mov	x1, #0x5                   	// #5
	b	whl
    1e38:	1400006c 	b	1fe8 <whl>
	b	exception_exit
    1e3c:	1400006c 	b	1fec <exception_exit>

0000000000001e40 <_do_irq>:

_do_irq:
	exception_entry
    1e40:	a9bf7bfd 	stp	x29, x30, [sp, #-16]!
    1e44:	a9bf73fb 	stp	x27, x28, [sp, #-16]!
    1e48:	a9bf6bf9 	stp	x25, x26, [sp, #-16]!
    1e4c:	a9bf63f7 	stp	x23, x24, [sp, #-16]!
    1e50:	a9bf5bf5 	stp	x21, x22, [sp, #-16]!
    1e54:	a9bf53f3 	stp	x19, x20, [sp, #-16]!
    1e58:	a9bf4bf1 	stp	x17, x18, [sp, #-16]!
    1e5c:	a9bf43ef 	stp	x15, x16, [sp, #-16]!
    1e60:	a9bf3bed 	stp	x13, x14, [sp, #-16]!
    1e64:	a9bf33eb 	stp	x11, x12, [sp, #-16]!
    1e68:	a9bf2be9 	stp	x9, x10, [sp, #-16]!
    1e6c:	a9bf23e7 	stp	x7, x8, [sp, #-16]!
    1e70:	a9bf1be5 	stp	x5, x6, [sp, #-16]!
    1e74:	a9bf13e3 	stp	x3, x4, [sp, #-16]!
    1e78:	a9bf0be1 	stp	x1, x2, [sp, #-16]!
    1e7c:	d538424b 	mrs	x11, currentel
    1e80:	f100317f 	cmp	x11, #0xc
    1e84:	540000a0 	b.eq	1e98 <_do_irq+0x58>  // b.none
    1e88:	f100217f 	cmp	x11, #0x8
    1e8c:	540000c0 	b.eq	1ea4 <_do_irq+0x64>  // b.none
    1e90:	f100117f 	cmp	x11, #0x4
    1e94:	540000e0 	b.eq	1eb0 <_do_irq+0x70>  // b.none
    1e98:	d53e5201 	mrs	x1, esr_el3
    1e9c:	d53e4022 	mrs	x2, elr_el3
    1ea0:	14000006 	b	1eb8 <_do_irq+0x78>
    1ea4:	d53c5201 	mrs	x1, esr_el2
    1ea8:	d53c4022 	mrs	x2, elr_el2
    1eac:	14000003 	b	1eb8 <_do_irq+0x78>
    1eb0:	d5385201 	mrs	x1, esr_el1
    1eb4:	d5384022 	mrs	x2, elr_el1
    1eb8:	a9bf03e2 	stp	x2, x0, [sp, #-16]!
    1ebc:	910003e0 	mov	x0, sp
	mov	x1,#0x6
    1ec0:	d28000c1 	mov	x1, #0x6                   	// #6
	mrs 	x0,s3_0_c12_c12_0 
    1ec4:	d538cc00 	mrs	x0, s3_0_c12_c12_0
	bl	clr_intr
    1ec8:	94000066 	bl	2060 <clr_intr>
	b	exception_exit
    1ecc:	14000048 	b	1fec <exception_exit>

0000000000001ed0 <_do_fiq>:

_do_fiq:
	exception_entry
    1ed0:	a9bf7bfd 	stp	x29, x30, [sp, #-16]!
    1ed4:	a9bf73fb 	stp	x27, x28, [sp, #-16]!
    1ed8:	a9bf6bf9 	stp	x25, x26, [sp, #-16]!
    1edc:	a9bf63f7 	stp	x23, x24, [sp, #-16]!
    1ee0:	a9bf5bf5 	stp	x21, x22, [sp, #-16]!
    1ee4:	a9bf53f3 	stp	x19, x20, [sp, #-16]!
    1ee8:	a9bf4bf1 	stp	x17, x18, [sp, #-16]!
    1eec:	a9bf43ef 	stp	x15, x16, [sp, #-16]!
    1ef0:	a9bf3bed 	stp	x13, x14, [sp, #-16]!
    1ef4:	a9bf33eb 	stp	x11, x12, [sp, #-16]!
    1ef8:	a9bf2be9 	stp	x9, x10, [sp, #-16]!
    1efc:	a9bf23e7 	stp	x7, x8, [sp, #-16]!
    1f00:	a9bf1be5 	stp	x5, x6, [sp, #-16]!
    1f04:	a9bf13e3 	stp	x3, x4, [sp, #-16]!
    1f08:	a9bf0be1 	stp	x1, x2, [sp, #-16]!
    1f0c:	d538424b 	mrs	x11, currentel
    1f10:	f100317f 	cmp	x11, #0xc
    1f14:	540000a0 	b.eq	1f28 <_do_fiq+0x58>  // b.none
    1f18:	f100217f 	cmp	x11, #0x8
    1f1c:	540000c0 	b.eq	1f34 <_do_fiq+0x64>  // b.none
    1f20:	f100117f 	cmp	x11, #0x4
    1f24:	540000e0 	b.eq	1f40 <_do_fiq+0x70>  // b.none
    1f28:	d53e5201 	mrs	x1, esr_el3
    1f2c:	d53e4022 	mrs	x2, elr_el3
    1f30:	14000006 	b	1f48 <_do_fiq+0x78>
    1f34:	d53c5201 	mrs	x1, esr_el2
    1f38:	d53c4022 	mrs	x2, elr_el2
    1f3c:	14000003 	b	1f48 <_do_fiq+0x78>
    1f40:	d5385201 	mrs	x1, esr_el1
    1f44:	d5384022 	mrs	x2, elr_el1
    1f48:	a9bf03e2 	stp	x2, x0, [sp, #-16]!
    1f4c:	910003e0 	mov	x0, sp
	mov	x1,#0x7
    1f50:	d28000e1 	mov	x1, #0x7                   	// #7
	b	whl
    1f54:	14000025 	b	1fe8 <whl>
	b	exception_exit
    1f58:	14000025 	b	1fec <exception_exit>

0000000000001f5c <_do_error>:

_do_error:
	exception_entry
    1f5c:	a9bf7bfd 	stp	x29, x30, [sp, #-16]!
    1f60:	a9bf73fb 	stp	x27, x28, [sp, #-16]!
    1f64:	a9bf6bf9 	stp	x25, x26, [sp, #-16]!
    1f68:	a9bf63f7 	stp	x23, x24, [sp, #-16]!
    1f6c:	a9bf5bf5 	stp	x21, x22, [sp, #-16]!
    1f70:	a9bf53f3 	stp	x19, x20, [sp, #-16]!
    1f74:	a9bf4bf1 	stp	x17, x18, [sp, #-16]!
    1f78:	a9bf43ef 	stp	x15, x16, [sp, #-16]!
    1f7c:	a9bf3bed 	stp	x13, x14, [sp, #-16]!
    1f80:	a9bf33eb 	stp	x11, x12, [sp, #-16]!
    1f84:	a9bf2be9 	stp	x9, x10, [sp, #-16]!
    1f88:	a9bf23e7 	stp	x7, x8, [sp, #-16]!
    1f8c:	a9bf1be5 	stp	x5, x6, [sp, #-16]!
    1f90:	a9bf13e3 	stp	x3, x4, [sp, #-16]!
    1f94:	a9bf0be1 	stp	x1, x2, [sp, #-16]!
    1f98:	d538424b 	mrs	x11, currentel
    1f9c:	f100317f 	cmp	x11, #0xc
    1fa0:	540000a0 	b.eq	1fb4 <_do_error+0x58>  // b.none
    1fa4:	f100217f 	cmp	x11, #0x8
    1fa8:	540000c0 	b.eq	1fc0 <_do_error+0x64>  // b.none
    1fac:	f100117f 	cmp	x11, #0x4
    1fb0:	540000e0 	b.eq	1fcc <_do_error+0x70>  // b.none
    1fb4:	d53e5201 	mrs	x1, esr_el3
    1fb8:	d53e4022 	mrs	x2, elr_el3
    1fbc:	14000006 	b	1fd4 <_do_error+0x78>
    1fc0:	d53c5201 	mrs	x1, esr_el2
    1fc4:	d53c4022 	mrs	x2, elr_el2
    1fc8:	14000003 	b	1fd4 <_do_error+0x78>
    1fcc:	d5385201 	mrs	x1, esr_el1
    1fd0:	d5384022 	mrs	x2, elr_el1
    1fd4:	a9bf03e2 	stp	x2, x0, [sp, #-16]!
    1fd8:	910003e0 	mov	x0, sp
	mov	x1,#0x8
    1fdc:	d2800101 	mov	x1, #0x8                   	// #8
	b	whl
    1fe0:	14000002 	b	1fe8 <whl>
	b	exception_exit
    1fe4:	14000002 	b	1fec <exception_exit>

0000000000001fe8 <whl>:
whl:
	b whl
    1fe8:	14000000 	b	1fe8 <whl>

0000000000001fec <exception_exit>:

exception_exit:
	ldp	x2, x0, [sp],#16
    1fec:	a8c103e2 	ldp	x2, x0, [sp], #16
	switch_el x11, 3f, 2f, 1f
    1ff0:	d538424b 	mrs	x11, currentel
    1ff4:	f100317f 	cmp	x11, #0xc
    1ff8:	540000a0 	b.eq	200c <exception_exit+0x20>  // b.none
    1ffc:	f100217f 	cmp	x11, #0x8
    2000:	540000a0 	b.eq	2014 <exception_exit+0x28>  // b.none
    2004:	f100117f 	cmp	x11, #0x4
    2008:	540000a0 	b.eq	201c <exception_exit+0x30>  // b.none
3:	msr	elr_el3, x2
    200c:	d51e4022 	msr	elr_el3, x2
	b	0f
    2010:	14000004 	b	2020 <exception_exit+0x34>
2:	msr	elr_el2, x2
    2014:	d51c4022 	msr	elr_el2, x2
	b	0f
    2018:	14000002 	b	2020 <exception_exit+0x34>
1:	msr	elr_el1, x2
    201c:	d5184022 	msr	elr_el1, x2
0:
	ldp	x1, x2, [sp],#16
    2020:	a8c10be1 	ldp	x1, x2, [sp], #16
	ldp	x3, x4, [sp],#16
    2024:	a8c113e3 	ldp	x3, x4, [sp], #16
	ldp	x5, x6, [sp],#16
    2028:	a8c11be5 	ldp	x5, x6, [sp], #16
	ldp	x7, x8, [sp],#16
    202c:	a8c123e7 	ldp	x7, x8, [sp], #16
	ldp	x9, x10, [sp],#16
    2030:	a8c12be9 	ldp	x9, x10, [sp], #16
	ldp	x11, x12, [sp],#16
    2034:	a8c133eb 	ldp	x11, x12, [sp], #16
	ldp	x13, x14, [sp],#16
    2038:	a8c13bed 	ldp	x13, x14, [sp], #16
	ldp	x15, x16, [sp],#16
    203c:	a8c143ef 	ldp	x15, x16, [sp], #16
	ldp	x17, x18, [sp],#16
    2040:	a8c14bf1 	ldp	x17, x18, [sp], #16
	ldp	x19, x20, [sp],#16
    2044:	a8c153f3 	ldp	x19, x20, [sp], #16
	ldp	x21, x22, [sp],#16
    2048:	a8c15bf5 	ldp	x21, x22, [sp], #16
	ldp	x23, x24, [sp],#16
    204c:	a8c163f7 	ldp	x23, x24, [sp], #16
	ldp	x25, x26, [sp],#16
    2050:	a8c16bf9 	ldp	x25, x26, [sp], #16
	ldp	x27, x28, [sp],#16
    2054:	a8c173fb 	ldp	x27, x28, [sp], #16
	ldp	x29, x30, [sp],#16
    2058:	a8c17bfd 	ldp	x29, x30, [sp], #16
	eret
    205c:	d69f03e0 	eret

0000000000002060 <clr_intr>:

clr_intr:
	msr s3_0_c12_c12_1,x0
    2060:	d518cc20 	msr	s3_0_c12_c12_1, x0
	msr s3_0_c12_c11_1,x0
    2064:	d518cb20 	msr	s3_0_c12_c11_1, x0
	and x0,x0,#0xfff
    2068:	92402c00 	and	x0, x0, #0xfff
	add x2,x0,#0x66
    206c:	91019802 	add	x2, x0, #0x66

/*	mov x2,#0x66
*/	mov x0,#0x18200000
    2070:	d2a30400 	mov	x0, #0x18200000            	// #404750336
	str x2,[x0]
    2074:	f9000002 	str	x2, [x0]
	ret
    2078:	d65f03c0 	ret

000000000000207c <mmu_start>:
	.global mmu_start
mmu_start:
	mov x0,#0x0
    207c:	d2800000 	mov	x0, #0x0                   	// #0
/*	mov x0,#0x10000
	lsl x0,x0,#0x10
*/	mov x1,#0x4100
    2080:	d2882001 	mov	x1, #0x4100                	// #16640
	lsl x1,x1,#0x10
    2084:	d370bc21 	lsl	x1, x1, #16
	add x0,x1,x0
    2088:	8b000020 	add	x0, x1, x0
	mov x1,#0x0
    208c:	d2800001 	mov	x1, #0x0                   	// #0
	mov x2,#0x3000
    2090:	d2860002 	mov	x2, #0x3000                	// #12288
	lsr x3,x2,#0x3
    2094:	d343fc43 	lsr	x3, x2, #3

0000000000002098 <cloop>:
cloop:
	str x1,[x0]
    2098:	f9000001 	str	x1, [x0]
	add x0,x0,#0x8
    209c:	91002000 	add	x0, x0, #0x8
	sub x3,x3,#0x1
    20a0:	d1000463 	sub	x3, x3, #0x1
	cmp x3,#0
    20a4:	f100007f 	cmp	x3, #0x0
	bne cloop
    20a8:	54ffff81 	b.ne	2098 <cloop>  // b.any

00000000000020ac <set_tbl0>:

set_tbl0:
	mov x0,#0x0
    20ac:	d2800000 	mov	x0, #0x0                   	// #0
/*	mov x0,#0x10000
	lsl x0,x0,#0x10
*/	mov x1,#0x4100
    20b0:	d2882001 	mov	x1, #0x4100                	// #16640
	lsl x1,x1,#0x10
    20b4:	d370bc21 	lsl	x1, x1, #16
	add x0,x1,x0		/* x0=0x41000000 */
    20b8:	8b000020 	add	x0, x1, x0

	mov x1,#0x1002
    20bc:	d2820041 	mov	x1, #0x1002                	// #4098
	add x1,x1,x0		/* x1=0x41001003 */
    20c0:	8b000021 	add	x1, x1, x0
	str x1,[x0]
    20c4:	f9000001 	str	x1, [x0]

	mov x2,#0x08
    20c8:	d2800102 	mov	x2, #0x8                   	// #8
	add x2,x2,x0		/* x2=0x41000008 */
    20cc:	8b000042 	add	x2, x2, x0

	mov x3,#0x1001
    20d0:	d2820023 	mov	x3, #0x1001                	// #4097
	add x3,x3,x1		/* x3=0x41002003 */
    20d4:	8b010063 	add	x3, x3, x1
	str x3,[x2]
    20d8:	f9000043 	str	x3, [x2]

00000000000020dc <set_tbl1>:

set_tbl1:
	mov x4,#0x2000
    20dc:	d2840004 	mov	x4, #0x2000                	// #8192
	add x4,x4,x0		/* x4=0x41002000 */
    20e0:	8b000084 	add	x4, x4, x0

	mov x5,#0x0
    20e4:	d2800005 	mov	x5, #0x0                   	// #0
/*	mov x5,#0x10000
	lsl x5,x5,#0x10
*/	mov x6,#0x40000000
    20e8:	d2a80006 	mov	x6, #0x40000000            	// #1073741824
	add x5,x5,x6
    20ec:	8b0600a5 	add	x5, x5, x6
	mov x6,#0x411
    20f0:	d2808226 	mov	x6, #0x411                 	// #1041
	add x5,x5,x6		/* x5=0x40000411 */
    20f4:	8b0600a5 	add	x5, x5, x6
	mov x6,#0x200000
    20f8:	d2a00406 	mov	x6, #0x200000              	// #2097152
	mov x7,#0x400
    20fc:	d2808007 	mov	x7, #0x400                 	// #1024
	lsr x8,x7,#0x3
    2100:	d343fce8 	lsr	x8, x7, #3

0000000000002104 <tl1_lp>:
tl1_lp:
	str x5,[x4]
    2104:	f9000085 	str	x5, [x4]
	add x4,x4,#0x8
    2108:	91002084 	add	x4, x4, #0x8
	add x5,x5,x6
    210c:	8b0600a5 	add	x5, x5, x6
	sub x8,x8,#0x1
    2110:	d1000508 	sub	x8, x8, #0x1
	cmp x8,#0
    2114:	f100011f 	cmp	x8, #0x0
	bne tl1_lp
    2118:	54ffff61 	b.ne	2104 <tl1_lp>  // b.any

000000000000211c <set_tbl2>:
set_tbl2:
	mov x6,#0x0
    211c:	d2800006 	mov	x6, #0x0                   	// #0
/*	mov x6,#0x100000000
*/	mov x7,#0x41000000
    2120:	d2a82007 	mov	x7, #0x41000000            	// #1090519040
	add x6,x6,x7		/* x6=0x41000000 */
    2124:	8b0700c6 	add	x6, x6, x7
	mov x7,x6
    2128:	aa0603e7 	mov	x7, x6
	add x7,x7,#0x1000
    212c:	914004e7 	add	x7, x7, #0x1, lsl #12
	add x7,x7,#0x3		/* x7=0x41001003 */
    2130:	91000ce7 	add	x7, x7, #0x3
	str x7,[x6]
    2134:	f90000c7 	str	x7, [x6]

	mov x6,#0x0
    2138:	d2800006 	mov	x6, #0x0                   	// #0
/*	mov x6,#0x100000000
*/	mov x7,#0x41000000
    213c:	d2a82007 	mov	x7, #0x41000000            	// #1090519040
	add x6,x6,x7
    2140:	8b0700c6 	add	x6, x6, x7
	add x6,x6,#0x1000	/* x6=0x4101000 */
    2144:	914004c6 	add	x6, x6, #0x1, lsl #12
	mov x7,#0x401		/* x7=0x411 */
    2148:	d2808027 	mov	x7, #0x401                 	// #1025
	mov x8,#0x200000
    214c:	d2a00408 	mov	x8, #0x200000              	// #2097152
	mov x9,#0x1000
    2150:	d2820009 	mov	x9, #0x1000                	// #4096
	lsr x10,x9,#0x3
    2154:	d343fd2a 	lsr	x10, x9, #3

0000000000002158 <tl2_lp>:
tl2_lp:
	str x7,[x6]
    2158:	f90000c7 	str	x7, [x6]
	add x6,x6,#0x8
    215c:	910020c6 	add	x6, x6, #0x8
	add x7,x7,x8
    2160:	8b0800e7 	add	x7, x7, x8
	sub x10,x10,#0x1
    2164:	d100054a 	sub	x10, x10, #0x1
	cmp x10,#0
    2168:	f100015f 	cmp	x10, #0x0
	bne tl2_lp
    216c:	54ffff61 	b.ne	2158 <tl2_lp>  // b.any

0000000000002170 <mmu_enable>:

mmu_enable:
	msr ttbr0_el3,x0 
    2170:	d51e2000 	msr	ttbr0_el3, x0
	mov x0,#0x80800000
    2174:	d2b01000 	mov	x0, #0x80800000            	// #2155872256
	mov x1,#0x3020
    2178:	d2860401 	mov	x1, #0x3020                	// #12320
	add x0,x0,x1
    217c:	8b010000 	add	x0, x0, x1
	msr tcr_el3,x0 
    2180:	d51e2040 	msr	tcr_el3, x0
	mov x0,#0xff44
    2184:	d29fe880 	mov	x0, #0xff44                	// #65348
	lsl x0,x0,#0x18
    2188:	d3689c00 	lsl	x0, x0, #24
	mov x1,#0xc040
    218c:	d2980801 	mov	x1, #0xc040                	// #49216
	lsl x1,x1,#0x4
    2190:	d37cec21 	lsl	x1, x1, #4
	add x0,x0,x1
    2194:	8b010000 	add	x0, x0, x1
	msr mair_el3,x0
    2198:	d51ea200 	msr	mair_el3, x0
	mov x0,#0xc518
    219c:	d298a300 	mov	x0, #0xc518                	// #50456
	lsl x0,x0,#0x8
    21a0:	d378dc00 	lsl	x0, x0, #8
	add x0,x0,#0x3d
    21a4:	9100f400 	add	x0, x0, #0x3d
	msr sctlr_el3,x0 
    21a8:	d51e1000 	msr	sctlr_el3, x0
/*	mov x0,#0x10000
	lsl x0,x0,#0x10
	mov x1,#0x40100000
	add x0,x0,x1
*/
	mov x0,#0x100
    21ac:	d2802000 	mov	x0, #0x100                 	// #256
	mov x1,#0x1234
    21b0:	d2824681 	mov	x1, #0x1234                	// #4660
	str x1,[x0]
    21b4:	f9000001 	str	x1, [x0]
	ret
    21b8:	d65f03c0 	ret

00000000000021bc <dram_init>:
unsigned int ddr_cfg_info[] = {
	#include "soc_init_reg_list.h"
};

void dram_init(void)
{
    21bc:	d10083ff 	sub	sp, sp, #0x20
	unsigned int i, reg_val;
	unsigned int len = ddr_cfg_info[0];
    21c0:	90000000 	adrp	x0, 2000 <exception_exit+0x14>
    21c4:	91130000 	add	x0, x0, #0x4c0
    21c8:	b9400000 	ldr	w0, [x0]
    21cc:	b9001be0 	str	w0, [sp, #24]
	struct reg_info_t *reginfo = (struct reg_info_t *)(&ddr_cfg_info[1]);
    21d0:	90000000 	adrp	x0, 2000 <exception_exit+0x14>
    21d4:	91131000 	add	x0, x0, #0x4c4
    21d8:	f9000be0 	str	x0, [sp, #16]
	for(i = 0; i < len; i++)
    21dc:	b9001fff 	str	wzr, [sp, #28]
    21e0:	14000077 	b	23bc <dram_init+0x200>
	{
		if((reginfo[i].reg_addr & 0x3) == 0x0)
    21e4:	b9401fe1 	ldr	w1, [sp, #28]
    21e8:	aa0103e0 	mov	x0, x1
    21ec:	d37ff800 	lsl	x0, x0, #1
    21f0:	8b010000 	add	x0, x0, x1
    21f4:	d37ef400 	lsl	x0, x0, #2
    21f8:	aa0003e1 	mov	x1, x0
    21fc:	f9400be0 	ldr	x0, [sp, #16]
    2200:	8b010000 	add	x0, x0, x1
    2204:	b9400000 	ldr	w0, [x0]
    2208:	12000400 	and	w0, w0, #0x3
    220c:	7100001f 	cmp	w0, #0x0
    2210:	54000681 	b.ne	22e0 <dram_init+0x124>  // b.any
		{
			reg_val = *(volatile unsigned int *)(unsigned long)reginfo[i].reg_addr;
    2214:	b9401fe1 	ldr	w1, [sp, #28]
    2218:	aa0103e0 	mov	x0, x1
    221c:	d37ff800 	lsl	x0, x0, #1
    2220:	8b010000 	add	x0, x0, x1
    2224:	d37ef400 	lsl	x0, x0, #2
    2228:	aa0003e1 	mov	x1, x0
    222c:	f9400be0 	ldr	x0, [sp, #16]
    2230:	8b010000 	add	x0, x0, x1
    2234:	b9400000 	ldr	w0, [x0]
    2238:	2a0003e0 	mov	w0, w0
    223c:	b9400000 	ldr	w0, [x0]
    2240:	b9000fe0 	str	w0, [sp, #12]
			reg_val &= ~reginfo[i].mask;
    2244:	b9401fe1 	ldr	w1, [sp, #28]
    2248:	aa0103e0 	mov	x0, x1
    224c:	d37ff800 	lsl	x0, x0, #1
    2250:	8b010000 	add	x0, x0, x1
    2254:	d37ef400 	lsl	x0, x0, #2
    2258:	aa0003e1 	mov	x1, x0
    225c:	f9400be0 	ldr	x0, [sp, #16]
    2260:	8b010000 	add	x0, x0, x1
    2264:	b9400800 	ldr	w0, [x0, #8]
    2268:	2a2003e0 	mvn	w0, w0
    226c:	b9400fe1 	ldr	w1, [sp, #12]
    2270:	0a000020 	and	w0, w1, w0
    2274:	b9000fe0 	str	w0, [sp, #12]
			reg_val |= reginfo[i].regv;
    2278:	b9401fe1 	ldr	w1, [sp, #28]
    227c:	aa0103e0 	mov	x0, x1
    2280:	d37ff800 	lsl	x0, x0, #1
    2284:	8b010000 	add	x0, x0, x1
    2288:	d37ef400 	lsl	x0, x0, #2
    228c:	aa0003e1 	mov	x1, x0
    2290:	f9400be0 	ldr	x0, [sp, #16]
    2294:	8b010000 	add	x0, x0, x1
    2298:	b9400400 	ldr	w0, [x0, #4]
    229c:	b9400fe1 	ldr	w1, [sp, #12]
    22a0:	2a000020 	orr	w0, w1, w0
    22a4:	b9000fe0 	str	w0, [sp, #12]
			*(volatile unsigned int *)(unsigned long)reginfo[i].reg_addr = reg_val;
    22a8:	b9401fe1 	ldr	w1, [sp, #28]
    22ac:	aa0103e0 	mov	x0, x1
    22b0:	d37ff800 	lsl	x0, x0, #1
    22b4:	8b010000 	add	x0, x0, x1
    22b8:	d37ef400 	lsl	x0, x0, #2
    22bc:	aa0003e1 	mov	x1, x0
    22c0:	f9400be0 	ldr	x0, [sp, #16]
    22c4:	8b010000 	add	x0, x0, x1
    22c8:	b9400000 	ldr	w0, [x0]
    22cc:	2a0003e0 	mov	w0, w0
    22d0:	aa0003e1 	mov	x1, x0
    22d4:	b9400fe0 	ldr	w0, [sp, #12]
    22d8:	b9000020 	str	w0, [x1]
    22dc:	14000035 	b	23b0 <dram_init+0x1f4>
		} else {
			reginfo[i].reg_addr &= ~0x3;
    22e0:	b9401fe1 	ldr	w1, [sp, #28]
    22e4:	aa0103e0 	mov	x0, x1
    22e8:	d37ff800 	lsl	x0, x0, #1
    22ec:	8b010000 	add	x0, x0, x1
    22f0:	d37ef400 	lsl	x0, x0, #2
    22f4:	aa0003e1 	mov	x1, x0
    22f8:	f9400be0 	ldr	x0, [sp, #16]
    22fc:	8b010000 	add	x0, x0, x1
    2300:	b9400002 	ldr	w2, [x0]
    2304:	b9401fe1 	ldr	w1, [sp, #28]
    2308:	aa0103e0 	mov	x0, x1
    230c:	d37ff800 	lsl	x0, x0, #1
    2310:	8b010000 	add	x0, x0, x1
    2314:	d37ef400 	lsl	x0, x0, #2
    2318:	aa0003e1 	mov	x1, x0
    231c:	f9400be0 	ldr	x0, [sp, #16]
    2320:	8b010000 	add	x0, x0, x1
    2324:	121e7441 	and	w1, w2, #0xfffffffc
    2328:	b9000001 	str	w1, [x0]
			while((*(volatile unsigned int *)(unsigned long)reginfo[i].reg_addr & reginfo[i].mask) != reginfo[i].regv)
    232c:	d503201f 	nop
    2330:	b9401fe1 	ldr	w1, [sp, #28]
    2334:	aa0103e0 	mov	x0, x1
    2338:	d37ff800 	lsl	x0, x0, #1
    233c:	8b010000 	add	x0, x0, x1
    2340:	d37ef400 	lsl	x0, x0, #2
    2344:	aa0003e1 	mov	x1, x0
    2348:	f9400be0 	ldr	x0, [sp, #16]
    234c:	8b010000 	add	x0, x0, x1
    2350:	b9400000 	ldr	w0, [x0]
    2354:	2a0003e0 	mov	w0, w0
    2358:	b9400002 	ldr	w2, [x0]
    235c:	b9401fe1 	ldr	w1, [sp, #28]
    2360:	aa0103e0 	mov	x0, x1
    2364:	d37ff800 	lsl	x0, x0, #1
    2368:	8b010000 	add	x0, x0, x1
    236c:	d37ef400 	lsl	x0, x0, #2
    2370:	aa0003e1 	mov	x1, x0
    2374:	f9400be0 	ldr	x0, [sp, #16]
    2378:	8b010000 	add	x0, x0, x1
    237c:	b9400800 	ldr	w0, [x0, #8]
    2380:	0a000042 	and	w2, w2, w0
    2384:	b9401fe1 	ldr	w1, [sp, #28]
    2388:	aa0103e0 	mov	x0, x1
    238c:	d37ff800 	lsl	x0, x0, #1
    2390:	8b010000 	add	x0, x0, x1
    2394:	d37ef400 	lsl	x0, x0, #2
    2398:	aa0003e1 	mov	x1, x0
    239c:	f9400be0 	ldr	x0, [sp, #16]
    23a0:	8b010000 	add	x0, x0, x1
    23a4:	b9400400 	ldr	w0, [x0, #4]
    23a8:	6b00005f 	cmp	w2, w0
    23ac:	54fffc21 	b.ne	2330 <dram_init+0x174>  // b.any
	for(i = 0; i < len; i++)
    23b0:	b9401fe0 	ldr	w0, [sp, #28]
    23b4:	11000400 	add	w0, w0, #0x1
    23b8:	b9001fe0 	str	w0, [sp, #28]
    23bc:	b9401fe1 	ldr	w1, [sp, #28]
    23c0:	b9401be0 	ldr	w0, [sp, #24]
    23c4:	6b00003f 	cmp	w1, w0
    23c8:	54fff0e3 	b.cc	21e4 <dram_init+0x28>  // b.lo, b.ul, b.last
			{
				;
			}
		}
	}
}
    23cc:	d503201f 	nop
    23d0:	910083ff 	add	sp, sp, #0x20
    23d4:	d65f03c0 	ret

00000000000023d8 <mc_memcpy>:
#if 1
void mc_memcpy(void *dest, void *src, unsigned int size)
{
    23d8:	d100c3ff 	sub	sp, sp, #0x30
    23dc:	f9000fe0 	str	x0, [sp, #24]
    23e0:	f9000be1 	str	x1, [sp, #16]
    23e4:	b9000fe2 	str	w2, [sp, #12]
	unsigned int i = 0;
    23e8:	b9002fff 	str	wzr, [sp, #44]
	for(i = 0; i < size; i += 8)
    23ec:	b9002fff 	str	wzr, [sp, #44]
    23f0:	1400000c 	b	2420 <mc_memcpy+0x48>
		*(unsigned long *)(dest + i) = *(unsigned long *)(src + i);
    23f4:	b9402fe0 	ldr	w0, [sp, #44]
    23f8:	f9400be1 	ldr	x1, [sp, #16]
    23fc:	8b000021 	add	x1, x1, x0
    2400:	b9402fe0 	ldr	w0, [sp, #44]
    2404:	f9400fe2 	ldr	x2, [sp, #24]
    2408:	8b000040 	add	x0, x2, x0
    240c:	f9400021 	ldr	x1, [x1]
    2410:	f9000001 	str	x1, [x0]
	for(i = 0; i < size; i += 8)
    2414:	b9402fe0 	ldr	w0, [sp, #44]
    2418:	11002000 	add	w0, w0, #0x8
    241c:	b9002fe0 	str	w0, [sp, #44]
    2420:	b9402fe1 	ldr	w1, [sp, #44]
    2424:	b9400fe0 	ldr	w0, [sp, #12]
    2428:	6b00003f 	cmp	w1, w0
    242c:	54fffe43 	b.cc	23f4 <mc_memcpy+0x1c>  // b.lo, b.ul, b.last
}
    2430:	d503201f 	nop
    2434:	9100c3ff 	add	sp, sp, #0x30
    2438:	d65f03c0 	ret

000000000000243c <main>:
#endif
int main(void)
{
    243c:	a9bd7bfd 	stp	x29, x30, [sp, #-48]!
    2440:	910003fd 	mov	x29, sp
	void *dest = (void *)0x43000000;
    2444:	d2a86000 	mov	x0, #0x43000000            	// #1124073472
    2448:	f90013a0 	str	x0, [x29, #32]
	void *src  = (void *)0x42000000;
    244c:	d2a84000 	mov	x0, #0x42000000            	// #1107296256
    2450:	f9000fa0 	str	x0, [x29, #24]
	unsigned int size, count;
	int i = 0;
    2454:	b9002fbf 	str	wzr, [x29, #44]

	dram_init();
    2458:	97ffff59 	bl	21bc <dram_init>
	mmu_start();
    245c:	97ffff08 	bl	207c <mmu_start>

	size = 300*1024;
    2460:	52960000 	mov	w0, #0xb000                	// #45056
    2464:	72a00080 	movk	w0, #0x4, lsl #16
    2468:	b90017a0 	str	w0, [x29, #20]
	count = 1000;
    246c:	52807d00 	mov	w0, #0x3e8                 	// #1000
    2470:	b90013a0 	str	w0, [x29, #16]
	mc_memcpy(dest,src,size);
    2474:	b94017a2 	ldr	w2, [x29, #20]
    2478:	f9400fa1 	ldr	x1, [x29, #24]
    247c:	f94013a0 	ldr	x0, [x29, #32]
    2480:	97ffffd6 	bl	23d8 <mc_memcpy>

	for (i = 0; i < count; i++)
    2484:	b9002fbf 	str	wzr, [x29, #44]
    2488:	14000009 	b	24ac <main+0x70>
	{
		mc_memcpy(dest,src,300*1024);
    248c:	52960002 	mov	w2, #0xb000                	// #45056
    2490:	72a00082 	movk	w2, #0x4, lsl #16
    2494:	f9400fa1 	ldr	x1, [x29, #24]
    2498:	f94013a0 	ldr	x0, [x29, #32]
    249c:	97ffffcf 	bl	23d8 <mc_memcpy>
	for (i = 0; i < count; i++)
    24a0:	b9402fa0 	ldr	w0, [x29, #44]
    24a4:	11000400 	add	w0, w0, #0x1
    24a8:	b9002fa0 	str	w0, [x29, #44]
    24ac:	b9402fa0 	ldr	w0, [x29, #44]
    24b0:	b94013a1 	ldr	w1, [x29, #16]
    24b4:	6b00003f 	cmp	w1, w0
    24b8:	54fffea8 	b.hi	248c <main+0x50>  // b.pmore
	}

	while(1);
    24bc:	14000000 	b	24bc <main+0x80>
