
Memory Configuration

Name             Origin             Length             Attributes
*default*        0x0000000000000000 0xffffffffffffffff

Linker script and memory map

                0x0000000000000000                . = 0x0
                0x0000000000000000                __TEXT_START = .
                0x0000000000000000                . = ALIGN (0x8)

.text           0x0000000000000000     0x2540
 *(.text.first)
 .text.first    0x0000000000000000     0x1510 start.o
                0x0000000000000000                _start
                0x0000000000000194                request_irq
                0x0000000000000200                _b_start
                0x0000000000000300                _b_end
                0x0000000000000400                _stack_top
 *(.text)
 .text          0x0000000000001510        0x0 start.o
 *fill*         0x0000000000001510      0x2f0 
 .text          0x0000000000001800      0x87c exceptions.o
                0x0000000000001800                vectors
 .text          0x000000000000207c      0x4c4 main.o
                0x000000000000207c                irq_return
                0x000000000000209c                readl
                0x00000000000020bc                read1
                0x00000000000020dc                writel
                0x0000000000002100                writeq
                0x0000000000002124                ckg_enable
                0x00000000000021ac                uart_init
                0x0000000000002218                set_baudrate
                0x00000000000022e4                set_line_ctrl
                0x000000000000244c                echo_test
                0x00000000000024f8                main

.iplt           0x0000000000002540        0x0
 .iplt          0x0000000000002540        0x0 start.o

.rela.dyn       0x0000000000002540        0x0
 .rela.iplt     0x0000000000002540        0x0 start.o
                0x0000000000002540                . = ALIGN (0x8)

.rodata
 *(.rodata)
                0x0000000000002540                . = ALIGN (0x8)

.data           0x0000000000002540        0x0
 *(.data)
 .data          0x0000000000002540        0x0 start.o
 .data          0x0000000000002540        0x0 exceptions.o
 .data          0x0000000000002540        0x0 main.o

.igot.plt       0x0000000000002540        0x0
 .igot.plt      0x0000000000002540        0x0 start.o
                0x0000000000002540                . = ALIGN (0x8)
                0x0000000000002540                _bss_start = .

.bss            0x0000000000002540       0x20
 *(.bss)
 .bss           0x0000000000002540        0x0 start.o
 .bss           0x0000000000002540        0x0 exceptions.o
 .bss           0x0000000000002540       0x20 main.o
                0x0000000000002560                . = ALIGN (0x8)
                0x0000000000002560                _bss_end = .
LOAD start.o
LOAD exceptions.o
LOAD main.o
OUTPUT(./uart.axf elf64-littleaarch64)

.debug_line     0x0000000000000000      0x1e8
 .debug_line    0x0000000000000000       0xa9 start.o
 .debug_line    0x00000000000000a9       0x96 exceptions.o
 .debug_line    0x000000000000013f       0xa9 main.o

.debug_info     0x0000000000000000      0x48d
 .debug_info    0x0000000000000000       0x6a start.o
 .debug_info    0x000000000000006a       0x6f exceptions.o
 .debug_info    0x00000000000000d9      0x3b4 main.o

.debug_abbrev   0x0000000000000000      0x15e
 .debug_abbrev  0x0000000000000000       0x14 start.o
 .debug_abbrev  0x0000000000000014       0x14 exceptions.o
 .debug_abbrev  0x0000000000000028      0x136 main.o

.debug_aranges  0x0000000000000000       0x90
 .debug_aranges
                0x0000000000000000       0x30 start.o
 .debug_aranges
                0x0000000000000030       0x30 exceptions.o
 .debug_aranges
                0x0000000000000060       0x30 main.o

.debug_str      0x0000000000000000      0x17d
 .debug_str     0x0000000000000000      0x17d main.o
                                        0x18a (size before relaxing)

.comment        0x0000000000000000       0x24
 .comment       0x0000000000000000       0x24 main.o
                                         0x25 (size before relaxing)

.note.GNU-stack
                0x0000000000000000        0x0
 .note.GNU-stack
                0x0000000000000000        0x0 main.o

.debug_frame    0x0000000000000000      0x1a0
 .debug_frame   0x0000000000000000      0x1a0 main.o
