
./uart.axf:     file format elf64-littleaarch64


Disassembly of section .text:

0000000000000000 <__TEXT_START>:
	.extern __bss_start
	.extern __bss_end
	.section .text.first
	.global _start
_start:
	adr	x0, vectors
       0:	1000c000 	adr	x0, 1800 <vectors>
	switch_el x1, 3f, 2f, 1f
       4:	d5384241 	mrs	x1, currentel
       8:	f100303f 	cmp	x1, #0xc
       c:	540000a0 	b.eq	20 <__TEXT_START+0x20>  // b.none
      10:	f100203f 	cmp	x1, #0x8
      14:	54000120 	b.eq	38 <__TEXT_START+0x38>  // b.none
      18:	f100103f 	cmp	x1, #0x4
      1c:	54000160 	b.eq	48 <__TEXT_START+0x48>  // b.none
3:	msr	vbar_el3, x0
      20:	d51ec000 	msr	vbar_el3, x0
	mrs	x0, scr_el3
      24:	d53e1100 	mrs	x0, scr_el3
	orr	x0, x0, #0xf			/* SCR_EL3.NS|IRQ|FIQ|EA */
      28:	b2400c00 	orr	x0, x0, #0xf
	msr	scr_el3, x0
      2c:	d51e1100 	msr	scr_el3, x0
	msr	cptr_el3, xzr			/* Enable FP/SIMD */
      30:	d51e115f 	msr	cptr_el3, xzr
	b	0f
      34:	14000008 	b	54 <__TEXT_START+0x54>
2:	msr	vbar_el2, x0
      38:	d51cc000 	msr	vbar_el2, x0
	mov	x0, #0x33ff
      3c:	d2867fe0 	mov	x0, #0x33ff                	// #13311
	msr	cptr_el2, x0			/* Enable FP/SIMD */
      40:	d51c1140 	msr	cptr_el2, x0
	b	0f
      44:	14000004 	b	54 <__TEXT_START+0x54>
1:	msr	vbar_el1, x0
      48:	d518c000 	msr	vbar_el1, x0
	mov	x0, #3 << 20
      4c:	d2a00600 	mov	x0, #0x300000              	// #3145728
	msr	cpacr_el1, x0			/* Enable FP/SIMD */
      50:	d5181040 	msr	cpacr_el1, x0
0:

	adr x0, _b_start
      54:	10000d60 	adr	x0, 200 <_b_start>
	ldr x0, [x0]
      58:	f9400000 	ldr	x0, [x0]
	adr x1, _b_end
      5c:	10001521 	adr	x1, 300 <_b_end>
	ldr x1, [x1]
      60:	f9400021 	ldr	x1, [x1]
	mov x2, #0x0
      64:	d2800002 	mov	x2, #0x0                   	// #0

0000000000000068 <clbss_l>:
clbss_l:
	str x2, [x0]
      68:	f9000002 	.word	0xf9000002
	add x0, x0, #8
      6c:	91002000 	.word	0x91002000
	cmp x0, x1
      70:	eb01001f 	.word	0xeb01001f
	ble clbss_l
      74:	54ffffad 	.word	0x54ffffad

	bl gic_init_secure
      78:	94000007 	.word	0x94000007
	bl gic_init_secure_percpu
      7c:	94000014 	.word	0x94000014
	msr daifclr, #0x3
      80:	d50343ff 	.word	0xd50343ff
	adr x0, _stack_top
      84:	10001be0 	.word	0x10001be0
	ldr x0, [x0]
      88:	f9400000 	.word	0xf9400000
	mov sp, x0
      8c:	9100001f 	.word	0x9100001f
	bl	main
      90:	9400091a 	.word	0x9400091a

0000000000000094 <gic_init_secure>:


gic_init_secure:
	ldr x0,=GICD_BASE
      94:	5800a360 	.word	0x5800a360
	/*
	 * Initialize Distributor
	 * x0: Distributor Base
	 */
	mov	w9, #0x37		/* EnableGrp0 | EnableGrp1NS */
      98:	528006e9 	.word	0x528006e9
					/* EnableGrp1S | ARE_S | ARE_NS */
	str	w9, [x0, GICD_CTLR]	/* Secure GICD_CTLR */
      9c:	b9000009 	.word	0xb9000009
	ldr	w9, [x0, GICD_TYPER]
      a0:	b9400409 	.word	0xb9400409
	and	w10, w9, #0x1f		/* ITLinesNumber */
      a4:	1200112a 	.word	0x1200112a
	cbz	w10, 6f			/* No SPIs */
      a8:	3400010a 	.word	0x3400010a
	add	x11, x0, (GICD_IGROUPRn + 4)
      ac:	9102100b 	.word	0x9102100b
	add	x12, x0, (GICD_IGROUPMODRn + 4)
      b0:	9134100c 	.word	0x9134100c
	mov	w9, #~0
      b4:	12800009 	.word	0x12800009
5:	str	w9, [x11], #0x4
      b8:	b8004569 	.word	0xb8004569
	str	wzr, [x12], #0x4	/* Config SPIs as Group1NS */
      bc:	b800459f 	.word	0xb800459f
	sub	w10, w10, #0x1
      c0:	5100054a 	.word	0x5100054a
	cbnz	w10, 5b
      c4:	35ffffaa 	.word	0x35ffffaa
6:
	ret
      c8:	d65f03c0 	.word	0xd65f03c0

00000000000000cc <gic_init_secure_percpu>:
gic_init_secure_percpu:
	/*
	 * Initialize ReDistributor
	 * x0: ReDistributor Base
	 */
	ldr 	x0,=GICR_BASE
      cc:	5800a1e0 	.word	0x5800a1e0
	mrs	x10, mpidr_el1
      d0:	d53800aa 	.word	0xd53800aa
	lsr	x9, x10, #32
      d4:	d360fd49 	.word	0xd360fd49
	bfi	x10, x9, #24, #8	/* w10 is aff3:aff2:aff1:aff0 */
      d8:	b3681d2a 	.word	0xb3681d2a
	lsr	x10, x10, #0x8
      dc:	d348fd4a 	.word	0xd348fd4a
	mov	x9, x0
      e0:	aa0003e9 	.word	0xaa0003e9
7:	ldr	x11, [x9, GICR_TYPER]
      e4:	f940052b 	.word	0xf940052b
	lsr	x11, x11, #32		/* w11 is aff3:aff2:aff1:aff0 */
      e8:	d360fd6b 	.word	0xd360fd6b
	cmp	w10, w11
      ec:	6b0b015f 	.word	0x6b0b015f
	b.eq	8f
      f0:	54000060 	.word	0x54000060
	add	x9, x9, #(2 << 16)
      f4:	91408129 	.word	0x91408129
	b	7b
      f8:	17fffffb 	.word	0x17fffffb

	/* x9: ReDistributor Base Address of Current CPU */
8:	mov	w10, #0x0
      fc:	5280000a 	.word	0x5280000a
	str	w10, [x9, GICR_PWRR]
     100:	b900252a 	.word	0xb900252a
	nop
     104:	d503201f 	.word	0xd503201f
	nop
     108:	d503201f 	.word	0xd503201f
	nop
     10c:	d503201f 	.word	0xd503201f
	mov	w10, #~0x2
     110:	1280004a 	.word	0x1280004a
	ldr	w11, [x9, GICR_WAKER]
     114:	b940152b 	.word	0xb940152b
	and	w11, w11, w10		/* Clear ProcessorSleep */
     118:	0a0a016b 	.word	0x0a0a016b
	str	w11, [x9, GICR_WAKER]
     11c:	b900152b 	.word	0xb900152b
	dsb	st
     120:	d5033e9f 	.word	0xd5033e9f
	isb
     124:	d5033fdf 	.word	0xd5033fdf
9:	ldr	w10, [x9, GICR_WAKER]
     128:	b940152a 	.word	0xb940152a
	tbnz	w10, #2, 9b		/* Wait Children be Alive */
     12c:	3717ffea 	.word	0x3717ffea
	add	x10, x9, #(1 << 16)	/* SGI_Base */
     130:	9140412a 	.word	0x9140412a
	mov	w11, #~0
     134:	1280000b 	.word	0x1280000b
	str	w11, [x10, GICR_IGROUPRn]
     138:	b900814b 	.word	0xb900814b
	str	wzr, [x10, GICR_IGROUPMODRn]	/* SGIs|PPIs Group1NS */
     13c:	b90d015f 	.word	0xb90d015f
	mov	w11, #0x1		/* Enable SGI 0 */
     140:	5280002b 	.word	0x5280002b
	str	w11, [x10, GICR_ISENABLERn]
     144:	b901014b 	.word	0xb901014b
	/* Initialize Cpu Interface */
	mrs	x10, ICC_SRE_EL3
     148:	d53eccaa 	.word	0xd53eccaa
	orr	x10, x10, #0xf		/* SRE & Disable IRQ/FIQ Bypass & */
     14c:	b2400d4a 	.word	0xb2400d4a
					/* Allow EL2 access to ICC_SRE_EL2 */
	msr	ICC_SRE_EL3, x10
     150:	d51eccaa 	.word	0xd51eccaa
	isb
     154:	d5033fdf 	.word	0xd5033fdf
	mrs	x10, ICC_SRE_EL2
     158:	d53cc9aa 	.word	0xd53cc9aa
	orr	x10, x10, #0xf		/* SRE & Disable IRQ/FIQ Bypass & */
     15c:	b2400d4a 	.word	0xb2400d4a
					/* Allow EL1 access to ICC_SRE_EL1 */
	msr	ICC_SRE_EL2, x10
     160:	d51cc9aa 	.word	0xd51cc9aa
	isb
     164:	d5033fdf 	.word	0xd5033fdf
	mov	x10, #0x3		/* EnableGrp1NS | EnableGrp1S */
     168:	d280006a 	.word	0xd280006a
	msr	ICC_IGRPEN1_EL3, x10
     16c:	d51eccea 	.word	0xd51eccea
	isb
     170:	d5033fdf 	.word	0xd5033fdf
	msr	ICC_CTLR_EL3, xzr
     174:	d51ecc9f 	.word	0xd51ecc9f
	isb
     178:	d5033fdf 	.word	0xd5033fdf
	msr	ICC_CTLR_EL1, xzr	/* NonSecure ICC_CTLR_EL1 */
     17c:	d518cc9f 	.word	0xd518cc9f
	isb
     180:	d5033fdf 	.word	0xd5033fdf
	mov	x10, #0x1 << 7		/* Non-Secure access to ICC_PMR_EL1 */
     184:	d280100a 	.word	0xd280100a
	msr	ICC_PMR_EL1, x10
     188:	d518460a 	.word	0xd518460a
	isb
     18c:	d5033fdf 	.word	0xd5033fdf
	ret
     190:	d65f03c0 	.word	0xd65f03c0

0000000000000194 <request_irq>:

	.global request_irq
request_irq:
	ldr x1,=GICD_BASE
     194:	58009b61 	.word	0x58009b61
	add x1,x1,#0x100
     198:	91040021 	.word	0x91040021
	lsr x2,x0,#0x5
     19c:	d345fc02 	.word	0xd345fc02
	lsl x2,x2,#0x2
     1a0:	d37ef442 	.word	0xd37ef442
	add x1,x1,x2
     1a4:	8b020021 	.word	0x8b020021
	and x2,x0,#0x1f
     1a8:	92401002 	.word	0x92401002
	mov x3,#0x1
     1ac:	d2800023 	.word	0xd2800023
	lsl x2,x3,x2
     1b0:	9ac22062 	.word	0x9ac22062
	str w2,[x1]
     1b4:	b9000022 	.word	0xb9000022

	ldr x1,=GICD_BASE
     1b8:	58009a41 	.word	0x58009a41
	add x1,x1,#0x6000
     1bc:	91401821 	.word	0x91401821
	lsl x2,x0,#0x3
     1c0:	d37df002 	.word	0xd37df002
	add x1,x1,x2
     1c4:	8b020021 	.word	0x8b020021
	mov x3,#0x0
     1c8:	d2800003 	.word	0xd2800003
	str x3,[x1]
     1cc:	f9000023 	.word	0xf9000023
	isb
     1d0:	d5033fdf 	.word	0xd5033fdf
	ret
     1d4:	d65f03c0 	.word	0xd65f03c0
     1d8:	d503201f 	.word	0xd503201f
     1dc:	d503201f 	.word	0xd503201f
     1e0:	d503201f 	.word	0xd503201f
     1e4:	d503201f 	.word	0xd503201f
     1e8:	d503201f 	.word	0xd503201f
     1ec:	d503201f 	.word	0xd503201f
     1f0:	d503201f 	.word	0xd503201f
     1f4:	d503201f 	.word	0xd503201f
     1f8:	d503201f 	.word	0xd503201f
     1fc:	d503201f 	.word	0xd503201f

0000000000000200 <_b_start>:
     200:	00002540 	.word	0x00002540
     204:	00000000 	.word	0x00000000
     208:	d503201f 	nop
     20c:	d503201f 	nop
     210:	d503201f 	nop
     214:	d503201f 	nop
     218:	d503201f 	nop
     21c:	d503201f 	nop
     220:	d503201f 	nop
     224:	d503201f 	nop
     228:	d503201f 	nop
     22c:	d503201f 	nop
     230:	d503201f 	nop
     234:	d503201f 	nop
     238:	d503201f 	nop
     23c:	d503201f 	nop
     240:	d503201f 	nop
     244:	d503201f 	nop
     248:	d503201f 	nop
     24c:	d503201f 	nop
     250:	d503201f 	nop
     254:	d503201f 	nop
     258:	d503201f 	nop
     25c:	d503201f 	nop
     260:	d503201f 	nop
     264:	d503201f 	nop
     268:	d503201f 	nop
     26c:	d503201f 	nop
     270:	d503201f 	nop
     274:	d503201f 	nop
     278:	d503201f 	nop
     27c:	d503201f 	nop
     280:	d503201f 	nop
     284:	d503201f 	nop
     288:	d503201f 	nop
     28c:	d503201f 	nop
     290:	d503201f 	nop
     294:	d503201f 	nop
     298:	d503201f 	nop
     29c:	d503201f 	nop
     2a0:	d503201f 	nop
     2a4:	d503201f 	nop
     2a8:	d503201f 	nop
     2ac:	d503201f 	nop
     2b0:	d503201f 	nop
     2b4:	d503201f 	nop
     2b8:	d503201f 	nop
     2bc:	d503201f 	nop
     2c0:	d503201f 	nop
     2c4:	d503201f 	nop
     2c8:	d503201f 	nop
     2cc:	d503201f 	nop
     2d0:	d503201f 	nop
     2d4:	d503201f 	nop
     2d8:	d503201f 	nop
     2dc:	d503201f 	nop
     2e0:	d503201f 	nop
     2e4:	d503201f 	nop
     2e8:	d503201f 	nop
     2ec:	d503201f 	nop
     2f0:	d503201f 	nop
     2f4:	d503201f 	nop
     2f8:	d503201f 	nop
     2fc:	d503201f 	nop

0000000000000300 <_b_end>:
     300:	00002560 	.word	0x00002560
     304:	00000000 	.word	0x00000000
     308:	d503201f 	nop
     30c:	d503201f 	nop
     310:	d503201f 	nop
     314:	d503201f 	nop
     318:	d503201f 	nop
     31c:	d503201f 	nop
     320:	d503201f 	nop
     324:	d503201f 	nop
     328:	d503201f 	nop
     32c:	d503201f 	nop
     330:	d503201f 	nop
     334:	d503201f 	nop
     338:	d503201f 	nop
     33c:	d503201f 	nop
     340:	d503201f 	nop
     344:	d503201f 	nop
     348:	d503201f 	nop
     34c:	d503201f 	nop
     350:	d503201f 	nop
     354:	d503201f 	nop
     358:	d503201f 	nop
     35c:	d503201f 	nop
     360:	d503201f 	nop
     364:	d503201f 	nop
     368:	d503201f 	nop
     36c:	d503201f 	nop
     370:	d503201f 	nop
     374:	d503201f 	nop
     378:	d503201f 	nop
     37c:	d503201f 	nop
     380:	d503201f 	nop
     384:	d503201f 	nop
     388:	d503201f 	nop
     38c:	d503201f 	nop
     390:	d503201f 	nop
     394:	d503201f 	nop
     398:	d503201f 	nop
     39c:	d503201f 	nop
     3a0:	d503201f 	nop
     3a4:	d503201f 	nop
     3a8:	d503201f 	nop
     3ac:	d503201f 	nop
     3b0:	d503201f 	nop
     3b4:	d503201f 	nop
     3b8:	d503201f 	nop
     3bc:	d503201f 	nop
     3c0:	d503201f 	nop
     3c4:	d503201f 	nop
     3c8:	d503201f 	nop
     3cc:	d503201f 	nop
     3d0:	d503201f 	nop
     3d4:	d503201f 	nop
     3d8:	d503201f 	nop
     3dc:	d503201f 	nop
     3e0:	d503201f 	nop
     3e4:	d503201f 	nop
     3e8:	d503201f 	nop
     3ec:	d503201f 	nop
     3f0:	d503201f 	nop
     3f4:	d503201f 	nop
     3f8:	d503201f 	nop
     3fc:	d503201f 	nop

0000000000000400 <_stack_top>:
     400:	00001500 	.word	0x00001500
     404:	00000000 	.word	0x00000000
     408:	d503201f 	nop
     40c:	d503201f 	nop
     410:	d503201f 	nop
     414:	d503201f 	nop
     418:	d503201f 	nop
     41c:	d503201f 	nop
     420:	d503201f 	nop
     424:	d503201f 	nop
     428:	d503201f 	nop
     42c:	d503201f 	nop
     430:	d503201f 	nop
     434:	d503201f 	nop
     438:	d503201f 	nop
     43c:	d503201f 	nop
     440:	d503201f 	nop
     444:	d503201f 	nop
     448:	d503201f 	nop
     44c:	d503201f 	nop
     450:	d503201f 	nop
     454:	d503201f 	nop
     458:	d503201f 	nop
     45c:	d503201f 	nop
     460:	d503201f 	nop
     464:	d503201f 	nop
     468:	d503201f 	nop
     46c:	d503201f 	nop
     470:	d503201f 	nop
     474:	d503201f 	nop
     478:	d503201f 	nop
     47c:	d503201f 	nop
     480:	d503201f 	nop
     484:	d503201f 	nop
     488:	d503201f 	nop
     48c:	d503201f 	nop
     490:	d503201f 	nop
     494:	d503201f 	nop
     498:	d503201f 	nop
     49c:	d503201f 	nop
     4a0:	d503201f 	nop
     4a4:	d503201f 	nop
     4a8:	d503201f 	nop
     4ac:	d503201f 	nop
     4b0:	d503201f 	nop
     4b4:	d503201f 	nop
     4b8:	d503201f 	nop
     4bc:	d503201f 	nop
     4c0:	d503201f 	nop
     4c4:	d503201f 	nop
     4c8:	d503201f 	nop
     4cc:	d503201f 	nop
     4d0:	d503201f 	nop
     4d4:	d503201f 	nop
     4d8:	d503201f 	nop
     4dc:	d503201f 	nop
     4e0:	d503201f 	nop
     4e4:	d503201f 	nop
     4e8:	d503201f 	nop
     4ec:	d503201f 	nop
     4f0:	d503201f 	nop
     4f4:	d503201f 	nop
     4f8:	d503201f 	nop
     4fc:	d503201f 	nop
     500:	ffffffff 	.word	0xffffffff
     504:	ffffffff 	.word	0xffffffff
     508:	ffffffff 	.word	0xffffffff
     50c:	ffffffff 	.word	0xffffffff
     510:	ffffffff 	.word	0xffffffff
     514:	ffffffff 	.word	0xffffffff
     518:	ffffffff 	.word	0xffffffff
     51c:	ffffffff 	.word	0xffffffff
     520:	ffffffff 	.word	0xffffffff
     524:	ffffffff 	.word	0xffffffff
     528:	ffffffff 	.word	0xffffffff
     52c:	ffffffff 	.word	0xffffffff
     530:	ffffffff 	.word	0xffffffff
     534:	ffffffff 	.word	0xffffffff
     538:	ffffffff 	.word	0xffffffff
     53c:	ffffffff 	.word	0xffffffff
     540:	ffffffff 	.word	0xffffffff
     544:	ffffffff 	.word	0xffffffff
     548:	ffffffff 	.word	0xffffffff
     54c:	ffffffff 	.word	0xffffffff
     550:	ffffffff 	.word	0xffffffff
     554:	ffffffff 	.word	0xffffffff
     558:	ffffffff 	.word	0xffffffff
     55c:	ffffffff 	.word	0xffffffff
     560:	ffffffff 	.word	0xffffffff
     564:	ffffffff 	.word	0xffffffff
     568:	ffffffff 	.word	0xffffffff
     56c:	ffffffff 	.word	0xffffffff
     570:	ffffffff 	.word	0xffffffff
     574:	ffffffff 	.word	0xffffffff
     578:	ffffffff 	.word	0xffffffff
     57c:	ffffffff 	.word	0xffffffff
     580:	ffffffff 	.word	0xffffffff
     584:	ffffffff 	.word	0xffffffff
     588:	ffffffff 	.word	0xffffffff
     58c:	ffffffff 	.word	0xffffffff
     590:	ffffffff 	.word	0xffffffff
     594:	ffffffff 	.word	0xffffffff
     598:	ffffffff 	.word	0xffffffff
     59c:	ffffffff 	.word	0xffffffff
     5a0:	ffffffff 	.word	0xffffffff
     5a4:	ffffffff 	.word	0xffffffff
     5a8:	ffffffff 	.word	0xffffffff
     5ac:	ffffffff 	.word	0xffffffff
     5b0:	ffffffff 	.word	0xffffffff
     5b4:	ffffffff 	.word	0xffffffff
     5b8:	ffffffff 	.word	0xffffffff
     5bc:	ffffffff 	.word	0xffffffff
     5c0:	ffffffff 	.word	0xffffffff
     5c4:	ffffffff 	.word	0xffffffff
     5c8:	ffffffff 	.word	0xffffffff
     5cc:	ffffffff 	.word	0xffffffff
     5d0:	ffffffff 	.word	0xffffffff
     5d4:	ffffffff 	.word	0xffffffff
     5d8:	ffffffff 	.word	0xffffffff
     5dc:	ffffffff 	.word	0xffffffff
     5e0:	ffffffff 	.word	0xffffffff
     5e4:	ffffffff 	.word	0xffffffff
     5e8:	ffffffff 	.word	0xffffffff
     5ec:	ffffffff 	.word	0xffffffff
     5f0:	ffffffff 	.word	0xffffffff
     5f4:	ffffffff 	.word	0xffffffff
     5f8:	ffffffff 	.word	0xffffffff
     5fc:	ffffffff 	.word	0xffffffff
     600:	ffffffff 	.word	0xffffffff
     604:	ffffffff 	.word	0xffffffff
     608:	ffffffff 	.word	0xffffffff
     60c:	ffffffff 	.word	0xffffffff
     610:	ffffffff 	.word	0xffffffff
     614:	ffffffff 	.word	0xffffffff
     618:	ffffffff 	.word	0xffffffff
     61c:	ffffffff 	.word	0xffffffff
     620:	ffffffff 	.word	0xffffffff
     624:	ffffffff 	.word	0xffffffff
     628:	ffffffff 	.word	0xffffffff
     62c:	ffffffff 	.word	0xffffffff
     630:	ffffffff 	.word	0xffffffff
     634:	ffffffff 	.word	0xffffffff
     638:	ffffffff 	.word	0xffffffff
     63c:	ffffffff 	.word	0xffffffff
     640:	ffffffff 	.word	0xffffffff
     644:	ffffffff 	.word	0xffffffff
     648:	ffffffff 	.word	0xffffffff
     64c:	ffffffff 	.word	0xffffffff
     650:	ffffffff 	.word	0xffffffff
     654:	ffffffff 	.word	0xffffffff
     658:	ffffffff 	.word	0xffffffff
     65c:	ffffffff 	.word	0xffffffff
     660:	ffffffff 	.word	0xffffffff
     664:	ffffffff 	.word	0xffffffff
     668:	ffffffff 	.word	0xffffffff
     66c:	ffffffff 	.word	0xffffffff
     670:	ffffffff 	.word	0xffffffff
     674:	ffffffff 	.word	0xffffffff
     678:	ffffffff 	.word	0xffffffff
     67c:	ffffffff 	.word	0xffffffff
     680:	ffffffff 	.word	0xffffffff
     684:	ffffffff 	.word	0xffffffff
     688:	ffffffff 	.word	0xffffffff
     68c:	ffffffff 	.word	0xffffffff
     690:	ffffffff 	.word	0xffffffff
     694:	ffffffff 	.word	0xffffffff
     698:	ffffffff 	.word	0xffffffff
     69c:	ffffffff 	.word	0xffffffff
     6a0:	ffffffff 	.word	0xffffffff
     6a4:	ffffffff 	.word	0xffffffff
     6a8:	ffffffff 	.word	0xffffffff
     6ac:	ffffffff 	.word	0xffffffff
     6b0:	ffffffff 	.word	0xffffffff
     6b4:	ffffffff 	.word	0xffffffff
     6b8:	ffffffff 	.word	0xffffffff
     6bc:	ffffffff 	.word	0xffffffff
     6c0:	ffffffff 	.word	0xffffffff
     6c4:	ffffffff 	.word	0xffffffff
     6c8:	ffffffff 	.word	0xffffffff
     6cc:	ffffffff 	.word	0xffffffff
     6d0:	ffffffff 	.word	0xffffffff
     6d4:	ffffffff 	.word	0xffffffff
     6d8:	ffffffff 	.word	0xffffffff
     6dc:	ffffffff 	.word	0xffffffff
     6e0:	ffffffff 	.word	0xffffffff
     6e4:	ffffffff 	.word	0xffffffff
     6e8:	ffffffff 	.word	0xffffffff
     6ec:	ffffffff 	.word	0xffffffff
     6f0:	ffffffff 	.word	0xffffffff
     6f4:	ffffffff 	.word	0xffffffff
     6f8:	ffffffff 	.word	0xffffffff
     6fc:	ffffffff 	.word	0xffffffff
     700:	ffffffff 	.word	0xffffffff
     704:	ffffffff 	.word	0xffffffff
     708:	ffffffff 	.word	0xffffffff
     70c:	ffffffff 	.word	0xffffffff
     710:	ffffffff 	.word	0xffffffff
     714:	ffffffff 	.word	0xffffffff
     718:	ffffffff 	.word	0xffffffff
     71c:	ffffffff 	.word	0xffffffff
     720:	ffffffff 	.word	0xffffffff
     724:	ffffffff 	.word	0xffffffff
     728:	ffffffff 	.word	0xffffffff
     72c:	ffffffff 	.word	0xffffffff
     730:	ffffffff 	.word	0xffffffff
     734:	ffffffff 	.word	0xffffffff
     738:	ffffffff 	.word	0xffffffff
     73c:	ffffffff 	.word	0xffffffff
     740:	ffffffff 	.word	0xffffffff
     744:	ffffffff 	.word	0xffffffff
     748:	ffffffff 	.word	0xffffffff
     74c:	ffffffff 	.word	0xffffffff
     750:	ffffffff 	.word	0xffffffff
     754:	ffffffff 	.word	0xffffffff
     758:	ffffffff 	.word	0xffffffff
     75c:	ffffffff 	.word	0xffffffff
     760:	ffffffff 	.word	0xffffffff
     764:	ffffffff 	.word	0xffffffff
     768:	ffffffff 	.word	0xffffffff
     76c:	ffffffff 	.word	0xffffffff
     770:	ffffffff 	.word	0xffffffff
     774:	ffffffff 	.word	0xffffffff
     778:	ffffffff 	.word	0xffffffff
     77c:	ffffffff 	.word	0xffffffff
     780:	ffffffff 	.word	0xffffffff
     784:	ffffffff 	.word	0xffffffff
     788:	ffffffff 	.word	0xffffffff
     78c:	ffffffff 	.word	0xffffffff
     790:	ffffffff 	.word	0xffffffff
     794:	ffffffff 	.word	0xffffffff
     798:	ffffffff 	.word	0xffffffff
     79c:	ffffffff 	.word	0xffffffff
     7a0:	ffffffff 	.word	0xffffffff
     7a4:	ffffffff 	.word	0xffffffff
     7a8:	ffffffff 	.word	0xffffffff
     7ac:	ffffffff 	.word	0xffffffff
     7b0:	ffffffff 	.word	0xffffffff
     7b4:	ffffffff 	.word	0xffffffff
     7b8:	ffffffff 	.word	0xffffffff
     7bc:	ffffffff 	.word	0xffffffff
     7c0:	ffffffff 	.word	0xffffffff
     7c4:	ffffffff 	.word	0xffffffff
     7c8:	ffffffff 	.word	0xffffffff
     7cc:	ffffffff 	.word	0xffffffff
     7d0:	ffffffff 	.word	0xffffffff
     7d4:	ffffffff 	.word	0xffffffff
     7d8:	ffffffff 	.word	0xffffffff
     7dc:	ffffffff 	.word	0xffffffff
     7e0:	ffffffff 	.word	0xffffffff
     7e4:	ffffffff 	.word	0xffffffff
     7e8:	ffffffff 	.word	0xffffffff
     7ec:	ffffffff 	.word	0xffffffff
     7f0:	ffffffff 	.word	0xffffffff
     7f4:	ffffffff 	.word	0xffffffff
     7f8:	ffffffff 	.word	0xffffffff
     7fc:	ffffffff 	.word	0xffffffff
     800:	ffffffff 	.word	0xffffffff
     804:	ffffffff 	.word	0xffffffff
     808:	ffffffff 	.word	0xffffffff
     80c:	ffffffff 	.word	0xffffffff
     810:	ffffffff 	.word	0xffffffff
     814:	ffffffff 	.word	0xffffffff
     818:	ffffffff 	.word	0xffffffff
     81c:	ffffffff 	.word	0xffffffff
     820:	ffffffff 	.word	0xffffffff
     824:	ffffffff 	.word	0xffffffff
     828:	ffffffff 	.word	0xffffffff
     82c:	ffffffff 	.word	0xffffffff
     830:	ffffffff 	.word	0xffffffff
     834:	ffffffff 	.word	0xffffffff
     838:	ffffffff 	.word	0xffffffff
     83c:	ffffffff 	.word	0xffffffff
     840:	ffffffff 	.word	0xffffffff
     844:	ffffffff 	.word	0xffffffff
     848:	ffffffff 	.word	0xffffffff
     84c:	ffffffff 	.word	0xffffffff
     850:	ffffffff 	.word	0xffffffff
     854:	ffffffff 	.word	0xffffffff
     858:	ffffffff 	.word	0xffffffff
     85c:	ffffffff 	.word	0xffffffff
     860:	ffffffff 	.word	0xffffffff
     864:	ffffffff 	.word	0xffffffff
     868:	ffffffff 	.word	0xffffffff
     86c:	ffffffff 	.word	0xffffffff
     870:	ffffffff 	.word	0xffffffff
     874:	ffffffff 	.word	0xffffffff
     878:	ffffffff 	.word	0xffffffff
     87c:	ffffffff 	.word	0xffffffff
     880:	ffffffff 	.word	0xffffffff
     884:	ffffffff 	.word	0xffffffff
     888:	ffffffff 	.word	0xffffffff
     88c:	ffffffff 	.word	0xffffffff
     890:	ffffffff 	.word	0xffffffff
     894:	ffffffff 	.word	0xffffffff
     898:	ffffffff 	.word	0xffffffff
     89c:	ffffffff 	.word	0xffffffff
     8a0:	ffffffff 	.word	0xffffffff
     8a4:	ffffffff 	.word	0xffffffff
     8a8:	ffffffff 	.word	0xffffffff
     8ac:	ffffffff 	.word	0xffffffff
     8b0:	ffffffff 	.word	0xffffffff
     8b4:	ffffffff 	.word	0xffffffff
     8b8:	ffffffff 	.word	0xffffffff
     8bc:	ffffffff 	.word	0xffffffff
     8c0:	ffffffff 	.word	0xffffffff
     8c4:	ffffffff 	.word	0xffffffff
     8c8:	ffffffff 	.word	0xffffffff
     8cc:	ffffffff 	.word	0xffffffff
     8d0:	ffffffff 	.word	0xffffffff
     8d4:	ffffffff 	.word	0xffffffff
     8d8:	ffffffff 	.word	0xffffffff
     8dc:	ffffffff 	.word	0xffffffff
     8e0:	ffffffff 	.word	0xffffffff
     8e4:	ffffffff 	.word	0xffffffff
     8e8:	ffffffff 	.word	0xffffffff
     8ec:	ffffffff 	.word	0xffffffff
     8f0:	ffffffff 	.word	0xffffffff
     8f4:	ffffffff 	.word	0xffffffff
     8f8:	ffffffff 	.word	0xffffffff
     8fc:	ffffffff 	.word	0xffffffff
     900:	ffffffff 	.word	0xffffffff
     904:	ffffffff 	.word	0xffffffff
     908:	ffffffff 	.word	0xffffffff
     90c:	ffffffff 	.word	0xffffffff
     910:	ffffffff 	.word	0xffffffff
     914:	ffffffff 	.word	0xffffffff
     918:	ffffffff 	.word	0xffffffff
     91c:	ffffffff 	.word	0xffffffff
     920:	ffffffff 	.word	0xffffffff
     924:	ffffffff 	.word	0xffffffff
     928:	ffffffff 	.word	0xffffffff
     92c:	ffffffff 	.word	0xffffffff
     930:	ffffffff 	.word	0xffffffff
     934:	ffffffff 	.word	0xffffffff
     938:	ffffffff 	.word	0xffffffff
     93c:	ffffffff 	.word	0xffffffff
     940:	ffffffff 	.word	0xffffffff
     944:	ffffffff 	.word	0xffffffff
     948:	ffffffff 	.word	0xffffffff
     94c:	ffffffff 	.word	0xffffffff
     950:	ffffffff 	.word	0xffffffff
     954:	ffffffff 	.word	0xffffffff
     958:	ffffffff 	.word	0xffffffff
     95c:	ffffffff 	.word	0xffffffff
     960:	ffffffff 	.word	0xffffffff
     964:	ffffffff 	.word	0xffffffff
     968:	ffffffff 	.word	0xffffffff
     96c:	ffffffff 	.word	0xffffffff
     970:	ffffffff 	.word	0xffffffff
     974:	ffffffff 	.word	0xffffffff
     978:	ffffffff 	.word	0xffffffff
     97c:	ffffffff 	.word	0xffffffff
     980:	ffffffff 	.word	0xffffffff
     984:	ffffffff 	.word	0xffffffff
     988:	ffffffff 	.word	0xffffffff
     98c:	ffffffff 	.word	0xffffffff
     990:	ffffffff 	.word	0xffffffff
     994:	ffffffff 	.word	0xffffffff
     998:	ffffffff 	.word	0xffffffff
     99c:	ffffffff 	.word	0xffffffff
     9a0:	ffffffff 	.word	0xffffffff
     9a4:	ffffffff 	.word	0xffffffff
     9a8:	ffffffff 	.word	0xffffffff
     9ac:	ffffffff 	.word	0xffffffff
     9b0:	ffffffff 	.word	0xffffffff
     9b4:	ffffffff 	.word	0xffffffff
     9b8:	ffffffff 	.word	0xffffffff
     9bc:	ffffffff 	.word	0xffffffff
     9c0:	ffffffff 	.word	0xffffffff
     9c4:	ffffffff 	.word	0xffffffff
     9c8:	ffffffff 	.word	0xffffffff
     9cc:	ffffffff 	.word	0xffffffff
     9d0:	ffffffff 	.word	0xffffffff
     9d4:	ffffffff 	.word	0xffffffff
     9d8:	ffffffff 	.word	0xffffffff
     9dc:	ffffffff 	.word	0xffffffff
     9e0:	ffffffff 	.word	0xffffffff
     9e4:	ffffffff 	.word	0xffffffff
     9e8:	ffffffff 	.word	0xffffffff
     9ec:	ffffffff 	.word	0xffffffff
     9f0:	ffffffff 	.word	0xffffffff
     9f4:	ffffffff 	.word	0xffffffff
     9f8:	ffffffff 	.word	0xffffffff
     9fc:	ffffffff 	.word	0xffffffff
     a00:	ffffffff 	.word	0xffffffff
     a04:	ffffffff 	.word	0xffffffff
     a08:	ffffffff 	.word	0xffffffff
     a0c:	ffffffff 	.word	0xffffffff
     a10:	ffffffff 	.word	0xffffffff
     a14:	ffffffff 	.word	0xffffffff
     a18:	ffffffff 	.word	0xffffffff
     a1c:	ffffffff 	.word	0xffffffff
     a20:	ffffffff 	.word	0xffffffff
     a24:	ffffffff 	.word	0xffffffff
     a28:	ffffffff 	.word	0xffffffff
     a2c:	ffffffff 	.word	0xffffffff
     a30:	ffffffff 	.word	0xffffffff
     a34:	ffffffff 	.word	0xffffffff
     a38:	ffffffff 	.word	0xffffffff
     a3c:	ffffffff 	.word	0xffffffff
     a40:	ffffffff 	.word	0xffffffff
     a44:	ffffffff 	.word	0xffffffff
     a48:	ffffffff 	.word	0xffffffff
     a4c:	ffffffff 	.word	0xffffffff
     a50:	ffffffff 	.word	0xffffffff
     a54:	ffffffff 	.word	0xffffffff
     a58:	ffffffff 	.word	0xffffffff
     a5c:	ffffffff 	.word	0xffffffff
     a60:	ffffffff 	.word	0xffffffff
     a64:	ffffffff 	.word	0xffffffff
     a68:	ffffffff 	.word	0xffffffff
     a6c:	ffffffff 	.word	0xffffffff
     a70:	ffffffff 	.word	0xffffffff
     a74:	ffffffff 	.word	0xffffffff
     a78:	ffffffff 	.word	0xffffffff
     a7c:	ffffffff 	.word	0xffffffff
     a80:	ffffffff 	.word	0xffffffff
     a84:	ffffffff 	.word	0xffffffff
     a88:	ffffffff 	.word	0xffffffff
     a8c:	ffffffff 	.word	0xffffffff
     a90:	ffffffff 	.word	0xffffffff
     a94:	ffffffff 	.word	0xffffffff
     a98:	ffffffff 	.word	0xffffffff
     a9c:	ffffffff 	.word	0xffffffff
     aa0:	ffffffff 	.word	0xffffffff
     aa4:	ffffffff 	.word	0xffffffff
     aa8:	ffffffff 	.word	0xffffffff
     aac:	ffffffff 	.word	0xffffffff
     ab0:	ffffffff 	.word	0xffffffff
     ab4:	ffffffff 	.word	0xffffffff
     ab8:	ffffffff 	.word	0xffffffff
     abc:	ffffffff 	.word	0xffffffff
     ac0:	ffffffff 	.word	0xffffffff
     ac4:	ffffffff 	.word	0xffffffff
     ac8:	ffffffff 	.word	0xffffffff
     acc:	ffffffff 	.word	0xffffffff
     ad0:	ffffffff 	.word	0xffffffff
     ad4:	ffffffff 	.word	0xffffffff
     ad8:	ffffffff 	.word	0xffffffff
     adc:	ffffffff 	.word	0xffffffff
     ae0:	ffffffff 	.word	0xffffffff
     ae4:	ffffffff 	.word	0xffffffff
     ae8:	ffffffff 	.word	0xffffffff
     aec:	ffffffff 	.word	0xffffffff
     af0:	ffffffff 	.word	0xffffffff
     af4:	ffffffff 	.word	0xffffffff
     af8:	ffffffff 	.word	0xffffffff
     afc:	ffffffff 	.word	0xffffffff
     b00:	ffffffff 	.word	0xffffffff
     b04:	ffffffff 	.word	0xffffffff
     b08:	ffffffff 	.word	0xffffffff
     b0c:	ffffffff 	.word	0xffffffff
     b10:	ffffffff 	.word	0xffffffff
     b14:	ffffffff 	.word	0xffffffff
     b18:	ffffffff 	.word	0xffffffff
     b1c:	ffffffff 	.word	0xffffffff
     b20:	ffffffff 	.word	0xffffffff
     b24:	ffffffff 	.word	0xffffffff
     b28:	ffffffff 	.word	0xffffffff
     b2c:	ffffffff 	.word	0xffffffff
     b30:	ffffffff 	.word	0xffffffff
     b34:	ffffffff 	.word	0xffffffff
     b38:	ffffffff 	.word	0xffffffff
     b3c:	ffffffff 	.word	0xffffffff
     b40:	ffffffff 	.word	0xffffffff
     b44:	ffffffff 	.word	0xffffffff
     b48:	ffffffff 	.word	0xffffffff
     b4c:	ffffffff 	.word	0xffffffff
     b50:	ffffffff 	.word	0xffffffff
     b54:	ffffffff 	.word	0xffffffff
     b58:	ffffffff 	.word	0xffffffff
     b5c:	ffffffff 	.word	0xffffffff
     b60:	ffffffff 	.word	0xffffffff
     b64:	ffffffff 	.word	0xffffffff
     b68:	ffffffff 	.word	0xffffffff
     b6c:	ffffffff 	.word	0xffffffff
     b70:	ffffffff 	.word	0xffffffff
     b74:	ffffffff 	.word	0xffffffff
     b78:	ffffffff 	.word	0xffffffff
     b7c:	ffffffff 	.word	0xffffffff
     b80:	ffffffff 	.word	0xffffffff
     b84:	ffffffff 	.word	0xffffffff
     b88:	ffffffff 	.word	0xffffffff
     b8c:	ffffffff 	.word	0xffffffff
     b90:	ffffffff 	.word	0xffffffff
     b94:	ffffffff 	.word	0xffffffff
     b98:	ffffffff 	.word	0xffffffff
     b9c:	ffffffff 	.word	0xffffffff
     ba0:	ffffffff 	.word	0xffffffff
     ba4:	ffffffff 	.word	0xffffffff
     ba8:	ffffffff 	.word	0xffffffff
     bac:	ffffffff 	.word	0xffffffff
     bb0:	ffffffff 	.word	0xffffffff
     bb4:	ffffffff 	.word	0xffffffff
     bb8:	ffffffff 	.word	0xffffffff
     bbc:	ffffffff 	.word	0xffffffff
     bc0:	ffffffff 	.word	0xffffffff
     bc4:	ffffffff 	.word	0xffffffff
     bc8:	ffffffff 	.word	0xffffffff
     bcc:	ffffffff 	.word	0xffffffff
     bd0:	ffffffff 	.word	0xffffffff
     bd4:	ffffffff 	.word	0xffffffff
     bd8:	ffffffff 	.word	0xffffffff
     bdc:	ffffffff 	.word	0xffffffff
     be0:	ffffffff 	.word	0xffffffff
     be4:	ffffffff 	.word	0xffffffff
     be8:	ffffffff 	.word	0xffffffff
     bec:	ffffffff 	.word	0xffffffff
     bf0:	ffffffff 	.word	0xffffffff
     bf4:	ffffffff 	.word	0xffffffff
     bf8:	ffffffff 	.word	0xffffffff
     bfc:	ffffffff 	.word	0xffffffff
     c00:	ffffffff 	.word	0xffffffff
     c04:	ffffffff 	.word	0xffffffff
     c08:	ffffffff 	.word	0xffffffff
     c0c:	ffffffff 	.word	0xffffffff
     c10:	ffffffff 	.word	0xffffffff
     c14:	ffffffff 	.word	0xffffffff
     c18:	ffffffff 	.word	0xffffffff
     c1c:	ffffffff 	.word	0xffffffff
     c20:	ffffffff 	.word	0xffffffff
     c24:	ffffffff 	.word	0xffffffff
     c28:	ffffffff 	.word	0xffffffff
     c2c:	ffffffff 	.word	0xffffffff
     c30:	ffffffff 	.word	0xffffffff
     c34:	ffffffff 	.word	0xffffffff
     c38:	ffffffff 	.word	0xffffffff
     c3c:	ffffffff 	.word	0xffffffff
     c40:	ffffffff 	.word	0xffffffff
     c44:	ffffffff 	.word	0xffffffff
     c48:	ffffffff 	.word	0xffffffff
     c4c:	ffffffff 	.word	0xffffffff
     c50:	ffffffff 	.word	0xffffffff
     c54:	ffffffff 	.word	0xffffffff
     c58:	ffffffff 	.word	0xffffffff
     c5c:	ffffffff 	.word	0xffffffff
     c60:	ffffffff 	.word	0xffffffff
     c64:	ffffffff 	.word	0xffffffff
     c68:	ffffffff 	.word	0xffffffff
     c6c:	ffffffff 	.word	0xffffffff
     c70:	ffffffff 	.word	0xffffffff
     c74:	ffffffff 	.word	0xffffffff
     c78:	ffffffff 	.word	0xffffffff
     c7c:	ffffffff 	.word	0xffffffff
     c80:	ffffffff 	.word	0xffffffff
     c84:	ffffffff 	.word	0xffffffff
     c88:	ffffffff 	.word	0xffffffff
     c8c:	ffffffff 	.word	0xffffffff
     c90:	ffffffff 	.word	0xffffffff
     c94:	ffffffff 	.word	0xffffffff
     c98:	ffffffff 	.word	0xffffffff
     c9c:	ffffffff 	.word	0xffffffff
     ca0:	ffffffff 	.word	0xffffffff
     ca4:	ffffffff 	.word	0xffffffff
     ca8:	ffffffff 	.word	0xffffffff
     cac:	ffffffff 	.word	0xffffffff
     cb0:	ffffffff 	.word	0xffffffff
     cb4:	ffffffff 	.word	0xffffffff
     cb8:	ffffffff 	.word	0xffffffff
     cbc:	ffffffff 	.word	0xffffffff
     cc0:	ffffffff 	.word	0xffffffff
     cc4:	ffffffff 	.word	0xffffffff
     cc8:	ffffffff 	.word	0xffffffff
     ccc:	ffffffff 	.word	0xffffffff
     cd0:	ffffffff 	.word	0xffffffff
     cd4:	ffffffff 	.word	0xffffffff
     cd8:	ffffffff 	.word	0xffffffff
     cdc:	ffffffff 	.word	0xffffffff
     ce0:	ffffffff 	.word	0xffffffff
     ce4:	ffffffff 	.word	0xffffffff
     ce8:	ffffffff 	.word	0xffffffff
     cec:	ffffffff 	.word	0xffffffff
     cf0:	ffffffff 	.word	0xffffffff
     cf4:	ffffffff 	.word	0xffffffff
     cf8:	ffffffff 	.word	0xffffffff
     cfc:	ffffffff 	.word	0xffffffff
     d00:	ffffffff 	.word	0xffffffff
     d04:	ffffffff 	.word	0xffffffff
     d08:	ffffffff 	.word	0xffffffff
     d0c:	ffffffff 	.word	0xffffffff
     d10:	ffffffff 	.word	0xffffffff
     d14:	ffffffff 	.word	0xffffffff
     d18:	ffffffff 	.word	0xffffffff
     d1c:	ffffffff 	.word	0xffffffff
     d20:	ffffffff 	.word	0xffffffff
     d24:	ffffffff 	.word	0xffffffff
     d28:	ffffffff 	.word	0xffffffff
     d2c:	ffffffff 	.word	0xffffffff
     d30:	ffffffff 	.word	0xffffffff
     d34:	ffffffff 	.word	0xffffffff
     d38:	ffffffff 	.word	0xffffffff
     d3c:	ffffffff 	.word	0xffffffff
     d40:	ffffffff 	.word	0xffffffff
     d44:	ffffffff 	.word	0xffffffff
     d48:	ffffffff 	.word	0xffffffff
     d4c:	ffffffff 	.word	0xffffffff
     d50:	ffffffff 	.word	0xffffffff
     d54:	ffffffff 	.word	0xffffffff
     d58:	ffffffff 	.word	0xffffffff
     d5c:	ffffffff 	.word	0xffffffff
     d60:	ffffffff 	.word	0xffffffff
     d64:	ffffffff 	.word	0xffffffff
     d68:	ffffffff 	.word	0xffffffff
     d6c:	ffffffff 	.word	0xffffffff
     d70:	ffffffff 	.word	0xffffffff
     d74:	ffffffff 	.word	0xffffffff
     d78:	ffffffff 	.word	0xffffffff
     d7c:	ffffffff 	.word	0xffffffff
     d80:	ffffffff 	.word	0xffffffff
     d84:	ffffffff 	.word	0xffffffff
     d88:	ffffffff 	.word	0xffffffff
     d8c:	ffffffff 	.word	0xffffffff
     d90:	ffffffff 	.word	0xffffffff
     d94:	ffffffff 	.word	0xffffffff
     d98:	ffffffff 	.word	0xffffffff
     d9c:	ffffffff 	.word	0xffffffff
     da0:	ffffffff 	.word	0xffffffff
     da4:	ffffffff 	.word	0xffffffff
     da8:	ffffffff 	.word	0xffffffff
     dac:	ffffffff 	.word	0xffffffff
     db0:	ffffffff 	.word	0xffffffff
     db4:	ffffffff 	.word	0xffffffff
     db8:	ffffffff 	.word	0xffffffff
     dbc:	ffffffff 	.word	0xffffffff
     dc0:	ffffffff 	.word	0xffffffff
     dc4:	ffffffff 	.word	0xffffffff
     dc8:	ffffffff 	.word	0xffffffff
     dcc:	ffffffff 	.word	0xffffffff
     dd0:	ffffffff 	.word	0xffffffff
     dd4:	ffffffff 	.word	0xffffffff
     dd8:	ffffffff 	.word	0xffffffff
     ddc:	ffffffff 	.word	0xffffffff
     de0:	ffffffff 	.word	0xffffffff
     de4:	ffffffff 	.word	0xffffffff
     de8:	ffffffff 	.word	0xffffffff
     dec:	ffffffff 	.word	0xffffffff
     df0:	ffffffff 	.word	0xffffffff
     df4:	ffffffff 	.word	0xffffffff
     df8:	ffffffff 	.word	0xffffffff
     dfc:	ffffffff 	.word	0xffffffff
     e00:	ffffffff 	.word	0xffffffff
     e04:	ffffffff 	.word	0xffffffff
     e08:	ffffffff 	.word	0xffffffff
     e0c:	ffffffff 	.word	0xffffffff
     e10:	ffffffff 	.word	0xffffffff
     e14:	ffffffff 	.word	0xffffffff
     e18:	ffffffff 	.word	0xffffffff
     e1c:	ffffffff 	.word	0xffffffff
     e20:	ffffffff 	.word	0xffffffff
     e24:	ffffffff 	.word	0xffffffff
     e28:	ffffffff 	.word	0xffffffff
     e2c:	ffffffff 	.word	0xffffffff
     e30:	ffffffff 	.word	0xffffffff
     e34:	ffffffff 	.word	0xffffffff
     e38:	ffffffff 	.word	0xffffffff
     e3c:	ffffffff 	.word	0xffffffff
     e40:	ffffffff 	.word	0xffffffff
     e44:	ffffffff 	.word	0xffffffff
     e48:	ffffffff 	.word	0xffffffff
     e4c:	ffffffff 	.word	0xffffffff
     e50:	ffffffff 	.word	0xffffffff
     e54:	ffffffff 	.word	0xffffffff
     e58:	ffffffff 	.word	0xffffffff
     e5c:	ffffffff 	.word	0xffffffff
     e60:	ffffffff 	.word	0xffffffff
     e64:	ffffffff 	.word	0xffffffff
     e68:	ffffffff 	.word	0xffffffff
     e6c:	ffffffff 	.word	0xffffffff
     e70:	ffffffff 	.word	0xffffffff
     e74:	ffffffff 	.word	0xffffffff
     e78:	ffffffff 	.word	0xffffffff
     e7c:	ffffffff 	.word	0xffffffff
     e80:	ffffffff 	.word	0xffffffff
     e84:	ffffffff 	.word	0xffffffff
     e88:	ffffffff 	.word	0xffffffff
     e8c:	ffffffff 	.word	0xffffffff
     e90:	ffffffff 	.word	0xffffffff
     e94:	ffffffff 	.word	0xffffffff
     e98:	ffffffff 	.word	0xffffffff
     e9c:	ffffffff 	.word	0xffffffff
     ea0:	ffffffff 	.word	0xffffffff
     ea4:	ffffffff 	.word	0xffffffff
     ea8:	ffffffff 	.word	0xffffffff
     eac:	ffffffff 	.word	0xffffffff
     eb0:	ffffffff 	.word	0xffffffff
     eb4:	ffffffff 	.word	0xffffffff
     eb8:	ffffffff 	.word	0xffffffff
     ebc:	ffffffff 	.word	0xffffffff
     ec0:	ffffffff 	.word	0xffffffff
     ec4:	ffffffff 	.word	0xffffffff
     ec8:	ffffffff 	.word	0xffffffff
     ecc:	ffffffff 	.word	0xffffffff
     ed0:	ffffffff 	.word	0xffffffff
     ed4:	ffffffff 	.word	0xffffffff
     ed8:	ffffffff 	.word	0xffffffff
     edc:	ffffffff 	.word	0xffffffff
     ee0:	ffffffff 	.word	0xffffffff
     ee4:	ffffffff 	.word	0xffffffff
     ee8:	ffffffff 	.word	0xffffffff
     eec:	ffffffff 	.word	0xffffffff
     ef0:	ffffffff 	.word	0xffffffff
     ef4:	ffffffff 	.word	0xffffffff
     ef8:	ffffffff 	.word	0xffffffff
     efc:	ffffffff 	.word	0xffffffff
     f00:	ffffffff 	.word	0xffffffff
     f04:	ffffffff 	.word	0xffffffff
     f08:	ffffffff 	.word	0xffffffff
     f0c:	ffffffff 	.word	0xffffffff
     f10:	ffffffff 	.word	0xffffffff
     f14:	ffffffff 	.word	0xffffffff
     f18:	ffffffff 	.word	0xffffffff
     f1c:	ffffffff 	.word	0xffffffff
     f20:	ffffffff 	.word	0xffffffff
     f24:	ffffffff 	.word	0xffffffff
     f28:	ffffffff 	.word	0xffffffff
     f2c:	ffffffff 	.word	0xffffffff
     f30:	ffffffff 	.word	0xffffffff
     f34:	ffffffff 	.word	0xffffffff
     f38:	ffffffff 	.word	0xffffffff
     f3c:	ffffffff 	.word	0xffffffff
     f40:	ffffffff 	.word	0xffffffff
     f44:	ffffffff 	.word	0xffffffff
     f48:	ffffffff 	.word	0xffffffff
     f4c:	ffffffff 	.word	0xffffffff
     f50:	ffffffff 	.word	0xffffffff
     f54:	ffffffff 	.word	0xffffffff
     f58:	ffffffff 	.word	0xffffffff
     f5c:	ffffffff 	.word	0xffffffff
     f60:	ffffffff 	.word	0xffffffff
     f64:	ffffffff 	.word	0xffffffff
     f68:	ffffffff 	.word	0xffffffff
     f6c:	ffffffff 	.word	0xffffffff
     f70:	ffffffff 	.word	0xffffffff
     f74:	ffffffff 	.word	0xffffffff
     f78:	ffffffff 	.word	0xffffffff
     f7c:	ffffffff 	.word	0xffffffff
     f80:	ffffffff 	.word	0xffffffff
     f84:	ffffffff 	.word	0xffffffff
     f88:	ffffffff 	.word	0xffffffff
     f8c:	ffffffff 	.word	0xffffffff
     f90:	ffffffff 	.word	0xffffffff
     f94:	ffffffff 	.word	0xffffffff
     f98:	ffffffff 	.word	0xffffffff
     f9c:	ffffffff 	.word	0xffffffff
     fa0:	ffffffff 	.word	0xffffffff
     fa4:	ffffffff 	.word	0xffffffff
     fa8:	ffffffff 	.word	0xffffffff
     fac:	ffffffff 	.word	0xffffffff
     fb0:	ffffffff 	.word	0xffffffff
     fb4:	ffffffff 	.word	0xffffffff
     fb8:	ffffffff 	.word	0xffffffff
     fbc:	ffffffff 	.word	0xffffffff
     fc0:	ffffffff 	.word	0xffffffff
     fc4:	ffffffff 	.word	0xffffffff
     fc8:	ffffffff 	.word	0xffffffff
     fcc:	ffffffff 	.word	0xffffffff
     fd0:	ffffffff 	.word	0xffffffff
     fd4:	ffffffff 	.word	0xffffffff
     fd8:	ffffffff 	.word	0xffffffff
     fdc:	ffffffff 	.word	0xffffffff
     fe0:	ffffffff 	.word	0xffffffff
     fe4:	ffffffff 	.word	0xffffffff
     fe8:	ffffffff 	.word	0xffffffff
     fec:	ffffffff 	.word	0xffffffff
     ff0:	ffffffff 	.word	0xffffffff
     ff4:	ffffffff 	.word	0xffffffff
     ff8:	ffffffff 	.word	0xffffffff
     ffc:	ffffffff 	.word	0xffffffff
    1000:	ffffffff 	.word	0xffffffff
    1004:	ffffffff 	.word	0xffffffff
    1008:	ffffffff 	.word	0xffffffff
    100c:	ffffffff 	.word	0xffffffff
    1010:	ffffffff 	.word	0xffffffff
    1014:	ffffffff 	.word	0xffffffff
    1018:	ffffffff 	.word	0xffffffff
    101c:	ffffffff 	.word	0xffffffff
    1020:	ffffffff 	.word	0xffffffff
    1024:	ffffffff 	.word	0xffffffff
    1028:	ffffffff 	.word	0xffffffff
    102c:	ffffffff 	.word	0xffffffff
    1030:	ffffffff 	.word	0xffffffff
    1034:	ffffffff 	.word	0xffffffff
    1038:	ffffffff 	.word	0xffffffff
    103c:	ffffffff 	.word	0xffffffff
    1040:	ffffffff 	.word	0xffffffff
    1044:	ffffffff 	.word	0xffffffff
    1048:	ffffffff 	.word	0xffffffff
    104c:	ffffffff 	.word	0xffffffff
    1050:	ffffffff 	.word	0xffffffff
    1054:	ffffffff 	.word	0xffffffff
    1058:	ffffffff 	.word	0xffffffff
    105c:	ffffffff 	.word	0xffffffff
    1060:	ffffffff 	.word	0xffffffff
    1064:	ffffffff 	.word	0xffffffff
    1068:	ffffffff 	.word	0xffffffff
    106c:	ffffffff 	.word	0xffffffff
    1070:	ffffffff 	.word	0xffffffff
    1074:	ffffffff 	.word	0xffffffff
    1078:	ffffffff 	.word	0xffffffff
    107c:	ffffffff 	.word	0xffffffff
    1080:	ffffffff 	.word	0xffffffff
    1084:	ffffffff 	.word	0xffffffff
    1088:	ffffffff 	.word	0xffffffff
    108c:	ffffffff 	.word	0xffffffff
    1090:	ffffffff 	.word	0xffffffff
    1094:	ffffffff 	.word	0xffffffff
    1098:	ffffffff 	.word	0xffffffff
    109c:	ffffffff 	.word	0xffffffff
    10a0:	ffffffff 	.word	0xffffffff
    10a4:	ffffffff 	.word	0xffffffff
    10a8:	ffffffff 	.word	0xffffffff
    10ac:	ffffffff 	.word	0xffffffff
    10b0:	ffffffff 	.word	0xffffffff
    10b4:	ffffffff 	.word	0xffffffff
    10b8:	ffffffff 	.word	0xffffffff
    10bc:	ffffffff 	.word	0xffffffff
    10c0:	ffffffff 	.word	0xffffffff
    10c4:	ffffffff 	.word	0xffffffff
    10c8:	ffffffff 	.word	0xffffffff
    10cc:	ffffffff 	.word	0xffffffff
    10d0:	ffffffff 	.word	0xffffffff
    10d4:	ffffffff 	.word	0xffffffff
    10d8:	ffffffff 	.word	0xffffffff
    10dc:	ffffffff 	.word	0xffffffff
    10e0:	ffffffff 	.word	0xffffffff
    10e4:	ffffffff 	.word	0xffffffff
    10e8:	ffffffff 	.word	0xffffffff
    10ec:	ffffffff 	.word	0xffffffff
    10f0:	ffffffff 	.word	0xffffffff
    10f4:	ffffffff 	.word	0xffffffff
    10f8:	ffffffff 	.word	0xffffffff
    10fc:	ffffffff 	.word	0xffffffff
    1100:	ffffffff 	.word	0xffffffff
    1104:	ffffffff 	.word	0xffffffff
    1108:	ffffffff 	.word	0xffffffff
    110c:	ffffffff 	.word	0xffffffff
    1110:	ffffffff 	.word	0xffffffff
    1114:	ffffffff 	.word	0xffffffff
    1118:	ffffffff 	.word	0xffffffff
    111c:	ffffffff 	.word	0xffffffff
    1120:	ffffffff 	.word	0xffffffff
    1124:	ffffffff 	.word	0xffffffff
    1128:	ffffffff 	.word	0xffffffff
    112c:	ffffffff 	.word	0xffffffff
    1130:	ffffffff 	.word	0xffffffff
    1134:	ffffffff 	.word	0xffffffff
    1138:	ffffffff 	.word	0xffffffff
    113c:	ffffffff 	.word	0xffffffff
    1140:	ffffffff 	.word	0xffffffff
    1144:	ffffffff 	.word	0xffffffff
    1148:	ffffffff 	.word	0xffffffff
    114c:	ffffffff 	.word	0xffffffff
    1150:	ffffffff 	.word	0xffffffff
    1154:	ffffffff 	.word	0xffffffff
    1158:	ffffffff 	.word	0xffffffff
    115c:	ffffffff 	.word	0xffffffff
    1160:	ffffffff 	.word	0xffffffff
    1164:	ffffffff 	.word	0xffffffff
    1168:	ffffffff 	.word	0xffffffff
    116c:	ffffffff 	.word	0xffffffff
    1170:	ffffffff 	.word	0xffffffff
    1174:	ffffffff 	.word	0xffffffff
    1178:	ffffffff 	.word	0xffffffff
    117c:	ffffffff 	.word	0xffffffff
    1180:	ffffffff 	.word	0xffffffff
    1184:	ffffffff 	.word	0xffffffff
    1188:	ffffffff 	.word	0xffffffff
    118c:	ffffffff 	.word	0xffffffff
    1190:	ffffffff 	.word	0xffffffff
    1194:	ffffffff 	.word	0xffffffff
    1198:	ffffffff 	.word	0xffffffff
    119c:	ffffffff 	.word	0xffffffff
    11a0:	ffffffff 	.word	0xffffffff
    11a4:	ffffffff 	.word	0xffffffff
    11a8:	ffffffff 	.word	0xffffffff
    11ac:	ffffffff 	.word	0xffffffff
    11b0:	ffffffff 	.word	0xffffffff
    11b4:	ffffffff 	.word	0xffffffff
    11b8:	ffffffff 	.word	0xffffffff
    11bc:	ffffffff 	.word	0xffffffff
    11c0:	ffffffff 	.word	0xffffffff
    11c4:	ffffffff 	.word	0xffffffff
    11c8:	ffffffff 	.word	0xffffffff
    11cc:	ffffffff 	.word	0xffffffff
    11d0:	ffffffff 	.word	0xffffffff
    11d4:	ffffffff 	.word	0xffffffff
    11d8:	ffffffff 	.word	0xffffffff
    11dc:	ffffffff 	.word	0xffffffff
    11e0:	ffffffff 	.word	0xffffffff
    11e4:	ffffffff 	.word	0xffffffff
    11e8:	ffffffff 	.word	0xffffffff
    11ec:	ffffffff 	.word	0xffffffff
    11f0:	ffffffff 	.word	0xffffffff
    11f4:	ffffffff 	.word	0xffffffff
    11f8:	ffffffff 	.word	0xffffffff
    11fc:	ffffffff 	.word	0xffffffff
    1200:	ffffffff 	.word	0xffffffff
    1204:	ffffffff 	.word	0xffffffff
    1208:	ffffffff 	.word	0xffffffff
    120c:	ffffffff 	.word	0xffffffff
    1210:	ffffffff 	.word	0xffffffff
    1214:	ffffffff 	.word	0xffffffff
    1218:	ffffffff 	.word	0xffffffff
    121c:	ffffffff 	.word	0xffffffff
    1220:	ffffffff 	.word	0xffffffff
    1224:	ffffffff 	.word	0xffffffff
    1228:	ffffffff 	.word	0xffffffff
    122c:	ffffffff 	.word	0xffffffff
    1230:	ffffffff 	.word	0xffffffff
    1234:	ffffffff 	.word	0xffffffff
    1238:	ffffffff 	.word	0xffffffff
    123c:	ffffffff 	.word	0xffffffff
    1240:	ffffffff 	.word	0xffffffff
    1244:	ffffffff 	.word	0xffffffff
    1248:	ffffffff 	.word	0xffffffff
    124c:	ffffffff 	.word	0xffffffff
    1250:	ffffffff 	.word	0xffffffff
    1254:	ffffffff 	.word	0xffffffff
    1258:	ffffffff 	.word	0xffffffff
    125c:	ffffffff 	.word	0xffffffff
    1260:	ffffffff 	.word	0xffffffff
    1264:	ffffffff 	.word	0xffffffff
    1268:	ffffffff 	.word	0xffffffff
    126c:	ffffffff 	.word	0xffffffff
    1270:	ffffffff 	.word	0xffffffff
    1274:	ffffffff 	.word	0xffffffff
    1278:	ffffffff 	.word	0xffffffff
    127c:	ffffffff 	.word	0xffffffff
    1280:	ffffffff 	.word	0xffffffff
    1284:	ffffffff 	.word	0xffffffff
    1288:	ffffffff 	.word	0xffffffff
    128c:	ffffffff 	.word	0xffffffff
    1290:	ffffffff 	.word	0xffffffff
    1294:	ffffffff 	.word	0xffffffff
    1298:	ffffffff 	.word	0xffffffff
    129c:	ffffffff 	.word	0xffffffff
    12a0:	ffffffff 	.word	0xffffffff
    12a4:	ffffffff 	.word	0xffffffff
    12a8:	ffffffff 	.word	0xffffffff
    12ac:	ffffffff 	.word	0xffffffff
    12b0:	ffffffff 	.word	0xffffffff
    12b4:	ffffffff 	.word	0xffffffff
    12b8:	ffffffff 	.word	0xffffffff
    12bc:	ffffffff 	.word	0xffffffff
    12c0:	ffffffff 	.word	0xffffffff
    12c4:	ffffffff 	.word	0xffffffff
    12c8:	ffffffff 	.word	0xffffffff
    12cc:	ffffffff 	.word	0xffffffff
    12d0:	ffffffff 	.word	0xffffffff
    12d4:	ffffffff 	.word	0xffffffff
    12d8:	ffffffff 	.word	0xffffffff
    12dc:	ffffffff 	.word	0xffffffff
    12e0:	ffffffff 	.word	0xffffffff
    12e4:	ffffffff 	.word	0xffffffff
    12e8:	ffffffff 	.word	0xffffffff
    12ec:	ffffffff 	.word	0xffffffff
    12f0:	ffffffff 	.word	0xffffffff
    12f4:	ffffffff 	.word	0xffffffff
    12f8:	ffffffff 	.word	0xffffffff
    12fc:	ffffffff 	.word	0xffffffff
    1300:	ffffffff 	.word	0xffffffff
    1304:	ffffffff 	.word	0xffffffff
    1308:	ffffffff 	.word	0xffffffff
    130c:	ffffffff 	.word	0xffffffff
    1310:	ffffffff 	.word	0xffffffff
    1314:	ffffffff 	.word	0xffffffff
    1318:	ffffffff 	.word	0xffffffff
    131c:	ffffffff 	.word	0xffffffff
    1320:	ffffffff 	.word	0xffffffff
    1324:	ffffffff 	.word	0xffffffff
    1328:	ffffffff 	.word	0xffffffff
    132c:	ffffffff 	.word	0xffffffff
    1330:	ffffffff 	.word	0xffffffff
    1334:	ffffffff 	.word	0xffffffff
    1338:	ffffffff 	.word	0xffffffff
    133c:	ffffffff 	.word	0xffffffff
    1340:	ffffffff 	.word	0xffffffff
    1344:	ffffffff 	.word	0xffffffff
    1348:	ffffffff 	.word	0xffffffff
    134c:	ffffffff 	.word	0xffffffff
    1350:	ffffffff 	.word	0xffffffff
    1354:	ffffffff 	.word	0xffffffff
    1358:	ffffffff 	.word	0xffffffff
    135c:	ffffffff 	.word	0xffffffff
    1360:	ffffffff 	.word	0xffffffff
    1364:	ffffffff 	.word	0xffffffff
    1368:	ffffffff 	.word	0xffffffff
    136c:	ffffffff 	.word	0xffffffff
    1370:	ffffffff 	.word	0xffffffff
    1374:	ffffffff 	.word	0xffffffff
    1378:	ffffffff 	.word	0xffffffff
    137c:	ffffffff 	.word	0xffffffff
    1380:	ffffffff 	.word	0xffffffff
    1384:	ffffffff 	.word	0xffffffff
    1388:	ffffffff 	.word	0xffffffff
    138c:	ffffffff 	.word	0xffffffff
    1390:	ffffffff 	.word	0xffffffff
    1394:	ffffffff 	.word	0xffffffff
    1398:	ffffffff 	.word	0xffffffff
    139c:	ffffffff 	.word	0xffffffff
    13a0:	ffffffff 	.word	0xffffffff
    13a4:	ffffffff 	.word	0xffffffff
    13a8:	ffffffff 	.word	0xffffffff
    13ac:	ffffffff 	.word	0xffffffff
    13b0:	ffffffff 	.word	0xffffffff
    13b4:	ffffffff 	.word	0xffffffff
    13b8:	ffffffff 	.word	0xffffffff
    13bc:	ffffffff 	.word	0xffffffff
    13c0:	ffffffff 	.word	0xffffffff
    13c4:	ffffffff 	.word	0xffffffff
    13c8:	ffffffff 	.word	0xffffffff
    13cc:	ffffffff 	.word	0xffffffff
    13d0:	ffffffff 	.word	0xffffffff
    13d4:	ffffffff 	.word	0xffffffff
    13d8:	ffffffff 	.word	0xffffffff
    13dc:	ffffffff 	.word	0xffffffff
    13e0:	ffffffff 	.word	0xffffffff
    13e4:	ffffffff 	.word	0xffffffff
    13e8:	ffffffff 	.word	0xffffffff
    13ec:	ffffffff 	.word	0xffffffff
    13f0:	ffffffff 	.word	0xffffffff
    13f4:	ffffffff 	.word	0xffffffff
    13f8:	ffffffff 	.word	0xffffffff
    13fc:	ffffffff 	.word	0xffffffff
    1400:	ffffffff 	.word	0xffffffff
    1404:	ffffffff 	.word	0xffffffff
    1408:	ffffffff 	.word	0xffffffff
    140c:	ffffffff 	.word	0xffffffff
    1410:	ffffffff 	.word	0xffffffff
    1414:	ffffffff 	.word	0xffffffff
    1418:	ffffffff 	.word	0xffffffff
    141c:	ffffffff 	.word	0xffffffff
    1420:	ffffffff 	.word	0xffffffff
    1424:	ffffffff 	.word	0xffffffff
    1428:	ffffffff 	.word	0xffffffff
    142c:	ffffffff 	.word	0xffffffff
    1430:	ffffffff 	.word	0xffffffff
    1434:	ffffffff 	.word	0xffffffff
    1438:	ffffffff 	.word	0xffffffff
    143c:	ffffffff 	.word	0xffffffff
    1440:	ffffffff 	.word	0xffffffff
    1444:	ffffffff 	.word	0xffffffff
    1448:	ffffffff 	.word	0xffffffff
    144c:	ffffffff 	.word	0xffffffff
    1450:	ffffffff 	.word	0xffffffff
    1454:	ffffffff 	.word	0xffffffff
    1458:	ffffffff 	.word	0xffffffff
    145c:	ffffffff 	.word	0xffffffff
    1460:	ffffffff 	.word	0xffffffff
    1464:	ffffffff 	.word	0xffffffff
    1468:	ffffffff 	.word	0xffffffff
    146c:	ffffffff 	.word	0xffffffff
    1470:	ffffffff 	.word	0xffffffff
    1474:	ffffffff 	.word	0xffffffff
    1478:	ffffffff 	.word	0xffffffff
    147c:	ffffffff 	.word	0xffffffff
    1480:	ffffffff 	.word	0xffffffff
    1484:	ffffffff 	.word	0xffffffff
    1488:	ffffffff 	.word	0xffffffff
    148c:	ffffffff 	.word	0xffffffff
    1490:	ffffffff 	.word	0xffffffff
    1494:	ffffffff 	.word	0xffffffff
    1498:	ffffffff 	.word	0xffffffff
    149c:	ffffffff 	.word	0xffffffff
    14a0:	ffffffff 	.word	0xffffffff
    14a4:	ffffffff 	.word	0xffffffff
    14a8:	ffffffff 	.word	0xffffffff
    14ac:	ffffffff 	.word	0xffffffff
    14b0:	ffffffff 	.word	0xffffffff
    14b4:	ffffffff 	.word	0xffffffff
    14b8:	ffffffff 	.word	0xffffffff
    14bc:	ffffffff 	.word	0xffffffff
    14c0:	ffffffff 	.word	0xffffffff
    14c4:	ffffffff 	.word	0xffffffff
    14c8:	ffffffff 	.word	0xffffffff
    14cc:	ffffffff 	.word	0xffffffff
    14d0:	ffffffff 	.word	0xffffffff
    14d4:	ffffffff 	.word	0xffffffff
    14d8:	ffffffff 	.word	0xffffffff
    14dc:	ffffffff 	.word	0xffffffff
    14e0:	ffffffff 	.word	0xffffffff
    14e4:	ffffffff 	.word	0xffffffff
    14e8:	ffffffff 	.word	0xffffffff
    14ec:	ffffffff 	.word	0xffffffff
    14f0:	ffffffff 	.word	0xffffffff
    14f4:	ffffffff 	.word	0xffffffff
    14f8:	ffffffff 	.word	0xffffffff
    14fc:	ffffffff 	.word	0xffffffff

0000000000001500 <__stack_top>:
    1500:	01000000 	.word	0x01000000
    1504:	00000000 	.word	0x00000000
    1508:	01060000 	.word	0x01060000
	...

0000000000001800 <vectors>:
 */
	.align	11
	.globl	vectors
vectors:
	.align	7
	b	_do_bad_sync	/* Current EL Synchronous Thread */
    1800:	140000e1 	b	1b84 <_do_bad_sync>
    1804:	d503201f 	nop
    1808:	d503201f 	nop
    180c:	d503201f 	nop
    1810:	d503201f 	nop
    1814:	d503201f 	nop
    1818:	d503201f 	nop
    181c:	d503201f 	nop
    1820:	d503201f 	nop
    1824:	d503201f 	nop
    1828:	d503201f 	nop
    182c:	d503201f 	nop
    1830:	d503201f 	nop
    1834:	d503201f 	nop
    1838:	d503201f 	nop
    183c:	d503201f 	nop
    1840:	d503201f 	nop
    1844:	d503201f 	nop
    1848:	d503201f 	nop
    184c:	d503201f 	nop
    1850:	d503201f 	nop
    1854:	d503201f 	nop
    1858:	d503201f 	nop
    185c:	d503201f 	nop
    1860:	d503201f 	nop
    1864:	d503201f 	nop
    1868:	d503201f 	nop
    186c:	d503201f 	nop
    1870:	d503201f 	nop
    1874:	d503201f 	nop
    1878:	d503201f 	nop
    187c:	d503201f 	nop

	.align	7
	b	_do_bad_irq	/* Current EL IRQ Thread */
    1880:	140000e4 	b	1c10 <_do_bad_irq>
    1884:	d503201f 	nop
    1888:	d503201f 	nop
    188c:	d503201f 	nop
    1890:	d503201f 	nop
    1894:	d503201f 	nop
    1898:	d503201f 	nop
    189c:	d503201f 	nop
    18a0:	d503201f 	nop
    18a4:	d503201f 	nop
    18a8:	d503201f 	nop
    18ac:	d503201f 	nop
    18b0:	d503201f 	nop
    18b4:	d503201f 	nop
    18b8:	d503201f 	nop
    18bc:	d503201f 	nop
    18c0:	d503201f 	nop
    18c4:	d503201f 	nop
    18c8:	d503201f 	nop
    18cc:	d503201f 	nop
    18d0:	d503201f 	nop
    18d4:	d503201f 	nop
    18d8:	d503201f 	nop
    18dc:	d503201f 	nop
    18e0:	d503201f 	nop
    18e4:	d503201f 	nop
    18e8:	d503201f 	nop
    18ec:	d503201f 	nop
    18f0:	d503201f 	nop
    18f4:	d503201f 	nop
    18f8:	d503201f 	nop
    18fc:	d503201f 	nop

	.align	7
	b	_do_bad_fiq	/* Current EL FIQ Thread */
    1900:	140000e7 	b	1c9c <_do_bad_fiq>
    1904:	d503201f 	nop
    1908:	d503201f 	nop
    190c:	d503201f 	nop
    1910:	d503201f 	nop
    1914:	d503201f 	nop
    1918:	d503201f 	nop
    191c:	d503201f 	nop
    1920:	d503201f 	nop
    1924:	d503201f 	nop
    1928:	d503201f 	nop
    192c:	d503201f 	nop
    1930:	d503201f 	nop
    1934:	d503201f 	nop
    1938:	d503201f 	nop
    193c:	d503201f 	nop
    1940:	d503201f 	nop
    1944:	d503201f 	nop
    1948:	d503201f 	nop
    194c:	d503201f 	nop
    1950:	d503201f 	nop
    1954:	d503201f 	nop
    1958:	d503201f 	nop
    195c:	d503201f 	nop
    1960:	d503201f 	nop
    1964:	d503201f 	nop
    1968:	d503201f 	nop
    196c:	d503201f 	nop
    1970:	d503201f 	nop
    1974:	d503201f 	nop
    1978:	d503201f 	nop
    197c:	d503201f 	nop

	.align	7
	b	_do_bad_error	/* Current EL Error Thread */
    1980:	140000ea 	b	1d28 <_do_bad_error>
    1984:	d503201f 	nop
    1988:	d503201f 	nop
    198c:	d503201f 	nop
    1990:	d503201f 	nop
    1994:	d503201f 	nop
    1998:	d503201f 	nop
    199c:	d503201f 	nop
    19a0:	d503201f 	nop
    19a4:	d503201f 	nop
    19a8:	d503201f 	nop
    19ac:	d503201f 	nop
    19b0:	d503201f 	nop
    19b4:	d503201f 	nop
    19b8:	d503201f 	nop
    19bc:	d503201f 	nop
    19c0:	d503201f 	nop
    19c4:	d503201f 	nop
    19c8:	d503201f 	nop
    19cc:	d503201f 	nop
    19d0:	d503201f 	nop
    19d4:	d503201f 	nop
    19d8:	d503201f 	nop
    19dc:	d503201f 	nop
    19e0:	d503201f 	nop
    19e4:	d503201f 	nop
    19e8:	d503201f 	nop
    19ec:	d503201f 	nop
    19f0:	d503201f 	nop
    19f4:	d503201f 	nop
    19f8:	d503201f 	nop
    19fc:	d503201f 	nop

	.align	7
	b	_do_sync	/* Current EL Synchronous Handler */
    1a00:	140000ed 	b	1db4 <_do_sync>
    1a04:	d503201f 	nop
    1a08:	d503201f 	nop
    1a0c:	d503201f 	nop
    1a10:	d503201f 	nop
    1a14:	d503201f 	nop
    1a18:	d503201f 	nop
    1a1c:	d503201f 	nop
    1a20:	d503201f 	nop
    1a24:	d503201f 	nop
    1a28:	d503201f 	nop
    1a2c:	d503201f 	nop
    1a30:	d503201f 	nop
    1a34:	d503201f 	nop
    1a38:	d503201f 	nop
    1a3c:	d503201f 	nop
    1a40:	d503201f 	nop
    1a44:	d503201f 	nop
    1a48:	d503201f 	nop
    1a4c:	d503201f 	nop
    1a50:	d503201f 	nop
    1a54:	d503201f 	nop
    1a58:	d503201f 	nop
    1a5c:	d503201f 	nop
    1a60:	d503201f 	nop
    1a64:	d503201f 	nop
    1a68:	d503201f 	nop
    1a6c:	d503201f 	nop
    1a70:	d503201f 	nop
    1a74:	d503201f 	nop
    1a78:	d503201f 	nop
    1a7c:	d503201f 	nop

	.align	7
	b	_do_irq		/* Current EL IRQ Handler */
    1a80:	140000f0 	b	1e40 <_do_irq>
    1a84:	d503201f 	nop
    1a88:	d503201f 	nop
    1a8c:	d503201f 	nop
    1a90:	d503201f 	nop
    1a94:	d503201f 	nop
    1a98:	d503201f 	nop
    1a9c:	d503201f 	nop
    1aa0:	d503201f 	nop
    1aa4:	d503201f 	nop
    1aa8:	d503201f 	nop
    1aac:	d503201f 	nop
    1ab0:	d503201f 	nop
    1ab4:	d503201f 	nop
    1ab8:	d503201f 	nop
    1abc:	d503201f 	nop
    1ac0:	d503201f 	nop
    1ac4:	d503201f 	nop
    1ac8:	d503201f 	nop
    1acc:	d503201f 	nop
    1ad0:	d503201f 	nop
    1ad4:	d503201f 	nop
    1ad8:	d503201f 	nop
    1adc:	d503201f 	nop
    1ae0:	d503201f 	nop
    1ae4:	d503201f 	nop
    1ae8:	d503201f 	nop
    1aec:	d503201f 	nop
    1af0:	d503201f 	nop
    1af4:	d503201f 	nop
    1af8:	d503201f 	nop
    1afc:	d503201f 	nop

	.align	7
	b	_do_fiq		/* Current EL FIQ Handler */
    1b00:	140000f4 	b	1ed0 <_do_fiq>
    1b04:	d503201f 	nop
    1b08:	d503201f 	nop
    1b0c:	d503201f 	nop
    1b10:	d503201f 	nop
    1b14:	d503201f 	nop
    1b18:	d503201f 	nop
    1b1c:	d503201f 	nop
    1b20:	d503201f 	nop
    1b24:	d503201f 	nop
    1b28:	d503201f 	nop
    1b2c:	d503201f 	nop
    1b30:	d503201f 	nop
    1b34:	d503201f 	nop
    1b38:	d503201f 	nop
    1b3c:	d503201f 	nop
    1b40:	d503201f 	nop
    1b44:	d503201f 	nop
    1b48:	d503201f 	nop
    1b4c:	d503201f 	nop
    1b50:	d503201f 	nop
    1b54:	d503201f 	nop
    1b58:	d503201f 	nop
    1b5c:	d503201f 	nop
    1b60:	d503201f 	nop
    1b64:	d503201f 	nop
    1b68:	d503201f 	nop
    1b6c:	d503201f 	nop
    1b70:	d503201f 	nop
    1b74:	d503201f 	nop
    1b78:	d503201f 	nop
    1b7c:	d503201f 	nop

	.align	7
	b	_do_error	/* Current EL Error Handler */
    1b80:	140000f7 	b	1f5c <_do_error>

0000000000001b84 <_do_bad_sync>:


_do_bad_sync:
	exception_entry
    1b84:	a9bf7bfd 	stp	x29, x30, [sp, #-16]!
    1b88:	a9bf73fb 	stp	x27, x28, [sp, #-16]!
    1b8c:	a9bf6bf9 	stp	x25, x26, [sp, #-16]!
    1b90:	a9bf63f7 	stp	x23, x24, [sp, #-16]!
    1b94:	a9bf5bf5 	stp	x21, x22, [sp, #-16]!
    1b98:	a9bf53f3 	stp	x19, x20, [sp, #-16]!
    1b9c:	a9bf4bf1 	stp	x17, x18, [sp, #-16]!
    1ba0:	a9bf43ef 	stp	x15, x16, [sp, #-16]!
    1ba4:	a9bf3bed 	stp	x13, x14, [sp, #-16]!
    1ba8:	a9bf33eb 	stp	x11, x12, [sp, #-16]!
    1bac:	a9bf2be9 	stp	x9, x10, [sp, #-16]!
    1bb0:	a9bf23e7 	stp	x7, x8, [sp, #-16]!
    1bb4:	a9bf1be5 	stp	x5, x6, [sp, #-16]!
    1bb8:	a9bf13e3 	stp	x3, x4, [sp, #-16]!
    1bbc:	a9bf0be1 	stp	x1, x2, [sp, #-16]!
    1bc0:	d538424b 	mrs	x11, currentel
    1bc4:	f100317f 	cmp	x11, #0xc
    1bc8:	540000a0 	b.eq	1bdc <_do_bad_sync+0x58>  // b.none
    1bcc:	f100217f 	cmp	x11, #0x8
    1bd0:	540000c0 	b.eq	1be8 <_do_bad_sync+0x64>  // b.none
    1bd4:	f100117f 	cmp	x11, #0x4
    1bd8:	540000e0 	b.eq	1bf4 <_do_bad_sync+0x70>  // b.none
    1bdc:	d53e5201 	mrs	x1, esr_el3
    1be0:	d53e4022 	mrs	x2, elr_el3
    1be4:	14000006 	b	1bfc <_do_bad_sync+0x78>
    1be8:	d53c5201 	mrs	x1, esr_el2
    1bec:	d53c4022 	mrs	x2, elr_el2
    1bf0:	14000003 	b	1bfc <_do_bad_sync+0x78>
    1bf4:	d5385201 	mrs	x1, esr_el1
    1bf8:	d5384022 	mrs	x2, elr_el1
    1bfc:	a9bf03e2 	stp	x2, x0, [sp, #-16]!
    1c00:	910003e0 	mov	x0, sp
	mov	x1,#0x1
    1c04:	d2800021 	mov	x1, #0x1                   	// #1
	b	whl
    1c08:	140000f8 	b	1fe8 <whl>
	b	exception_exit
    1c0c:	140000f8 	b	1fec <exception_exit>

0000000000001c10 <_do_bad_irq>:

_do_bad_irq:
	exception_entry
    1c10:	a9bf7bfd 	stp	x29, x30, [sp, #-16]!
    1c14:	a9bf73fb 	stp	x27, x28, [sp, #-16]!
    1c18:	a9bf6bf9 	stp	x25, x26, [sp, #-16]!
    1c1c:	a9bf63f7 	stp	x23, x24, [sp, #-16]!
    1c20:	a9bf5bf5 	stp	x21, x22, [sp, #-16]!
    1c24:	a9bf53f3 	stp	x19, x20, [sp, #-16]!
    1c28:	a9bf4bf1 	stp	x17, x18, [sp, #-16]!
    1c2c:	a9bf43ef 	stp	x15, x16, [sp, #-16]!
    1c30:	a9bf3bed 	stp	x13, x14, [sp, #-16]!
    1c34:	a9bf33eb 	stp	x11, x12, [sp, #-16]!
    1c38:	a9bf2be9 	stp	x9, x10, [sp, #-16]!
    1c3c:	a9bf23e7 	stp	x7, x8, [sp, #-16]!
    1c40:	a9bf1be5 	stp	x5, x6, [sp, #-16]!
    1c44:	a9bf13e3 	stp	x3, x4, [sp, #-16]!
    1c48:	a9bf0be1 	stp	x1, x2, [sp, #-16]!
    1c4c:	d538424b 	mrs	x11, currentel
    1c50:	f100317f 	cmp	x11, #0xc
    1c54:	540000a0 	b.eq	1c68 <_do_bad_irq+0x58>  // b.none
    1c58:	f100217f 	cmp	x11, #0x8
    1c5c:	540000c0 	b.eq	1c74 <_do_bad_irq+0x64>  // b.none
    1c60:	f100117f 	cmp	x11, #0x4
    1c64:	540000e0 	b.eq	1c80 <_do_bad_irq+0x70>  // b.none
    1c68:	d53e5201 	mrs	x1, esr_el3
    1c6c:	d53e4022 	mrs	x2, elr_el3
    1c70:	14000006 	b	1c88 <_do_bad_irq+0x78>
    1c74:	d53c5201 	mrs	x1, esr_el2
    1c78:	d53c4022 	mrs	x2, elr_el2
    1c7c:	14000003 	b	1c88 <_do_bad_irq+0x78>
    1c80:	d5385201 	mrs	x1, esr_el1
    1c84:	d5384022 	mrs	x2, elr_el1
    1c88:	a9bf03e2 	stp	x2, x0, [sp, #-16]!
    1c8c:	910003e0 	mov	x0, sp
	mov	x1,#0x2
    1c90:	d2800041 	mov	x1, #0x2                   	// #2
	b	whl
    1c94:	140000d5 	b	1fe8 <whl>
	b	exception_exit
    1c98:	140000d5 	b	1fec <exception_exit>

0000000000001c9c <_do_bad_fiq>:

_do_bad_fiq:
	exception_entry
    1c9c:	a9bf7bfd 	stp	x29, x30, [sp, #-16]!
    1ca0:	a9bf73fb 	stp	x27, x28, [sp, #-16]!
    1ca4:	a9bf6bf9 	stp	x25, x26, [sp, #-16]!
    1ca8:	a9bf63f7 	stp	x23, x24, [sp, #-16]!
    1cac:	a9bf5bf5 	stp	x21, x22, [sp, #-16]!
    1cb0:	a9bf53f3 	stp	x19, x20, [sp, #-16]!
    1cb4:	a9bf4bf1 	stp	x17, x18, [sp, #-16]!
    1cb8:	a9bf43ef 	stp	x15, x16, [sp, #-16]!
    1cbc:	a9bf3bed 	stp	x13, x14, [sp, #-16]!
    1cc0:	a9bf33eb 	stp	x11, x12, [sp, #-16]!
    1cc4:	a9bf2be9 	stp	x9, x10, [sp, #-16]!
    1cc8:	a9bf23e7 	stp	x7, x8, [sp, #-16]!
    1ccc:	a9bf1be5 	stp	x5, x6, [sp, #-16]!
    1cd0:	a9bf13e3 	stp	x3, x4, [sp, #-16]!
    1cd4:	a9bf0be1 	stp	x1, x2, [sp, #-16]!
    1cd8:	d538424b 	mrs	x11, currentel
    1cdc:	f100317f 	cmp	x11, #0xc
    1ce0:	540000a0 	b.eq	1cf4 <_do_bad_fiq+0x58>  // b.none
    1ce4:	f100217f 	cmp	x11, #0x8
    1ce8:	540000c0 	b.eq	1d00 <_do_bad_fiq+0x64>  // b.none
    1cec:	f100117f 	cmp	x11, #0x4
    1cf0:	540000e0 	b.eq	1d0c <_do_bad_fiq+0x70>  // b.none
    1cf4:	d53e5201 	mrs	x1, esr_el3
    1cf8:	d53e4022 	mrs	x2, elr_el3
    1cfc:	14000006 	b	1d14 <_do_bad_fiq+0x78>
    1d00:	d53c5201 	mrs	x1, esr_el2
    1d04:	d53c4022 	mrs	x2, elr_el2
    1d08:	14000003 	b	1d14 <_do_bad_fiq+0x78>
    1d0c:	d5385201 	mrs	x1, esr_el1
    1d10:	d5384022 	mrs	x2, elr_el1
    1d14:	a9bf03e2 	stp	x2, x0, [sp, #-16]!
    1d18:	910003e0 	mov	x0, sp
	mov	x1,#0x3
    1d1c:	d2800061 	mov	x1, #0x3                   	// #3
	b	whl
    1d20:	140000b2 	b	1fe8 <whl>
	b	exception_exit
    1d24:	140000b2 	b	1fec <exception_exit>

0000000000001d28 <_do_bad_error>:

_do_bad_error:
	exception_entry
    1d28:	a9bf7bfd 	stp	x29, x30, [sp, #-16]!
    1d2c:	a9bf73fb 	stp	x27, x28, [sp, #-16]!
    1d30:	a9bf6bf9 	stp	x25, x26, [sp, #-16]!
    1d34:	a9bf63f7 	stp	x23, x24, [sp, #-16]!
    1d38:	a9bf5bf5 	stp	x21, x22, [sp, #-16]!
    1d3c:	a9bf53f3 	stp	x19, x20, [sp, #-16]!
    1d40:	a9bf4bf1 	stp	x17, x18, [sp, #-16]!
    1d44:	a9bf43ef 	stp	x15, x16, [sp, #-16]!
    1d48:	a9bf3bed 	stp	x13, x14, [sp, #-16]!
    1d4c:	a9bf33eb 	stp	x11, x12, [sp, #-16]!
    1d50:	a9bf2be9 	stp	x9, x10, [sp, #-16]!
    1d54:	a9bf23e7 	stp	x7, x8, [sp, #-16]!
    1d58:	a9bf1be5 	stp	x5, x6, [sp, #-16]!
    1d5c:	a9bf13e3 	stp	x3, x4, [sp, #-16]!
    1d60:	a9bf0be1 	stp	x1, x2, [sp, #-16]!
    1d64:	d538424b 	mrs	x11, currentel
    1d68:	f100317f 	cmp	x11, #0xc
    1d6c:	540000a0 	b.eq	1d80 <_do_bad_error+0x58>  // b.none
    1d70:	f100217f 	cmp	x11, #0x8
    1d74:	540000c0 	b.eq	1d8c <_do_bad_error+0x64>  // b.none
    1d78:	f100117f 	cmp	x11, #0x4
    1d7c:	540000e0 	b.eq	1d98 <_do_bad_error+0x70>  // b.none
    1d80:	d53e5201 	mrs	x1, esr_el3
    1d84:	d53e4022 	mrs	x2, elr_el3
    1d88:	14000006 	b	1da0 <_do_bad_error+0x78>
    1d8c:	d53c5201 	mrs	x1, esr_el2
    1d90:	d53c4022 	mrs	x2, elr_el2
    1d94:	14000003 	b	1da0 <_do_bad_error+0x78>
    1d98:	d5385201 	mrs	x1, esr_el1
    1d9c:	d5384022 	mrs	x2, elr_el1
    1da0:	a9bf03e2 	stp	x2, x0, [sp, #-16]!
    1da4:	910003e0 	mov	x0, sp
	mov	x1,#0x4
    1da8:	d2800081 	mov	x1, #0x4                   	// #4
	b	whl
    1dac:	1400008f 	b	1fe8 <whl>
	b	exception_exit
    1db0:	1400008f 	b	1fec <exception_exit>

0000000000001db4 <_do_sync>:

_do_sync:
	exception_entry
    1db4:	a9bf7bfd 	stp	x29, x30, [sp, #-16]!
    1db8:	a9bf73fb 	stp	x27, x28, [sp, #-16]!
    1dbc:	a9bf6bf9 	stp	x25, x26, [sp, #-16]!
    1dc0:	a9bf63f7 	stp	x23, x24, [sp, #-16]!
    1dc4:	a9bf5bf5 	stp	x21, x22, [sp, #-16]!
    1dc8:	a9bf53f3 	stp	x19, x20, [sp, #-16]!
    1dcc:	a9bf4bf1 	stp	x17, x18, [sp, #-16]!
    1dd0:	a9bf43ef 	stp	x15, x16, [sp, #-16]!
    1dd4:	a9bf3bed 	stp	x13, x14, [sp, #-16]!
    1dd8:	a9bf33eb 	stp	x11, x12, [sp, #-16]!
    1ddc:	a9bf2be9 	stp	x9, x10, [sp, #-16]!
    1de0:	a9bf23e7 	stp	x7, x8, [sp, #-16]!
    1de4:	a9bf1be5 	stp	x5, x6, [sp, #-16]!
    1de8:	a9bf13e3 	stp	x3, x4, [sp, #-16]!
    1dec:	a9bf0be1 	stp	x1, x2, [sp, #-16]!
    1df0:	d538424b 	mrs	x11, currentel
    1df4:	f100317f 	cmp	x11, #0xc
    1df8:	540000a0 	b.eq	1e0c <_do_sync+0x58>  // b.none
    1dfc:	f100217f 	cmp	x11, #0x8
    1e00:	540000c0 	b.eq	1e18 <_do_sync+0x64>  // b.none
    1e04:	f100117f 	cmp	x11, #0x4
    1e08:	540000e0 	b.eq	1e24 <_do_sync+0x70>  // b.none
    1e0c:	d53e5201 	mrs	x1, esr_el3
    1e10:	d53e4022 	mrs	x2, elr_el3
    1e14:	14000006 	b	1e2c <_do_sync+0x78>
    1e18:	d53c5201 	mrs	x1, esr_el2
    1e1c:	d53c4022 	mrs	x2, elr_el2
    1e20:	14000003 	b	1e2c <_do_sync+0x78>
    1e24:	d5385201 	mrs	x1, esr_el1
    1e28:	d5384022 	mrs	x2, elr_el1
    1e2c:	a9bf03e2 	stp	x2, x0, [sp, #-16]!
    1e30:	910003e0 	mov	x0, sp
	mov	x1,#0x5
    1e34:	d28000a1 	mov	x1, #0x5                   	// #5
	b	whl
    1e38:	1400006c 	b	1fe8 <whl>
	b	exception_exit
    1e3c:	1400006c 	b	1fec <exception_exit>

0000000000001e40 <_do_irq>:

_do_irq:
	exception_entry
    1e40:	a9bf7bfd 	stp	x29, x30, [sp, #-16]!
    1e44:	a9bf73fb 	stp	x27, x28, [sp, #-16]!
    1e48:	a9bf6bf9 	stp	x25, x26, [sp, #-16]!
    1e4c:	a9bf63f7 	stp	x23, x24, [sp, #-16]!
    1e50:	a9bf5bf5 	stp	x21, x22, [sp, #-16]!
    1e54:	a9bf53f3 	stp	x19, x20, [sp, #-16]!
    1e58:	a9bf4bf1 	stp	x17, x18, [sp, #-16]!
    1e5c:	a9bf43ef 	stp	x15, x16, [sp, #-16]!
    1e60:	a9bf3bed 	stp	x13, x14, [sp, #-16]!
    1e64:	a9bf33eb 	stp	x11, x12, [sp, #-16]!
    1e68:	a9bf2be9 	stp	x9, x10, [sp, #-16]!
    1e6c:	a9bf23e7 	stp	x7, x8, [sp, #-16]!
    1e70:	a9bf1be5 	stp	x5, x6, [sp, #-16]!
    1e74:	a9bf13e3 	stp	x3, x4, [sp, #-16]!
    1e78:	a9bf0be1 	stp	x1, x2, [sp, #-16]!
    1e7c:	d538424b 	mrs	x11, currentel
    1e80:	f100317f 	cmp	x11, #0xc
    1e84:	540000a0 	b.eq	1e98 <_do_irq+0x58>  // b.none
    1e88:	f100217f 	cmp	x11, #0x8
    1e8c:	540000c0 	b.eq	1ea4 <_do_irq+0x64>  // b.none
    1e90:	f100117f 	cmp	x11, #0x4
    1e94:	540000e0 	b.eq	1eb0 <_do_irq+0x70>  // b.none
    1e98:	d53e5201 	mrs	x1, esr_el3
    1e9c:	d53e4022 	mrs	x2, elr_el3
    1ea0:	14000006 	b	1eb8 <_do_irq+0x78>
    1ea4:	d53c5201 	mrs	x1, esr_el2
    1ea8:	d53c4022 	mrs	x2, elr_el2
    1eac:	14000003 	b	1eb8 <_do_irq+0x78>
    1eb0:	d5385201 	mrs	x1, esr_el1
    1eb4:	d5384022 	mrs	x2, elr_el1
    1eb8:	a9bf03e2 	stp	x2, x0, [sp, #-16]!
    1ebc:	910003e0 	mov	x0, sp
	mov	x1,#0x6
    1ec0:	d28000c1 	mov	x1, #0x6                   	// #6
	mrs 	x0,s3_0_c12_c12_0
    1ec4:	d538cc00 	mrs	x0, s3_0_c12_c12_0
	bl	clr_intr
    1ec8:	94000066 	bl	2060 <clr_intr>
	b	exception_exit
    1ecc:	14000048 	b	1fec <exception_exit>

0000000000001ed0 <_do_fiq>:

_do_fiq:
	exception_entry
    1ed0:	a9bf7bfd 	stp	x29, x30, [sp, #-16]!
    1ed4:	a9bf73fb 	stp	x27, x28, [sp, #-16]!
    1ed8:	a9bf6bf9 	stp	x25, x26, [sp, #-16]!
    1edc:	a9bf63f7 	stp	x23, x24, [sp, #-16]!
    1ee0:	a9bf5bf5 	stp	x21, x22, [sp, #-16]!
    1ee4:	a9bf53f3 	stp	x19, x20, [sp, #-16]!
    1ee8:	a9bf4bf1 	stp	x17, x18, [sp, #-16]!
    1eec:	a9bf43ef 	stp	x15, x16, [sp, #-16]!
    1ef0:	a9bf3bed 	stp	x13, x14, [sp, #-16]!
    1ef4:	a9bf33eb 	stp	x11, x12, [sp, #-16]!
    1ef8:	a9bf2be9 	stp	x9, x10, [sp, #-16]!
    1efc:	a9bf23e7 	stp	x7, x8, [sp, #-16]!
    1f00:	a9bf1be5 	stp	x5, x6, [sp, #-16]!
    1f04:	a9bf13e3 	stp	x3, x4, [sp, #-16]!
    1f08:	a9bf0be1 	stp	x1, x2, [sp, #-16]!
    1f0c:	d538424b 	mrs	x11, currentel
    1f10:	f100317f 	cmp	x11, #0xc
    1f14:	540000a0 	b.eq	1f28 <_do_fiq+0x58>  // b.none
    1f18:	f100217f 	cmp	x11, #0x8
    1f1c:	540000c0 	b.eq	1f34 <_do_fiq+0x64>  // b.none
    1f20:	f100117f 	cmp	x11, #0x4
    1f24:	540000e0 	b.eq	1f40 <_do_fiq+0x70>  // b.none
    1f28:	d53e5201 	mrs	x1, esr_el3
    1f2c:	d53e4022 	mrs	x2, elr_el3
    1f30:	14000006 	b	1f48 <_do_fiq+0x78>
    1f34:	d53c5201 	mrs	x1, esr_el2
    1f38:	d53c4022 	mrs	x2, elr_el2
    1f3c:	14000003 	b	1f48 <_do_fiq+0x78>
    1f40:	d5385201 	mrs	x1, esr_el1
    1f44:	d5384022 	mrs	x2, elr_el1
    1f48:	a9bf03e2 	stp	x2, x0, [sp, #-16]!
    1f4c:	910003e0 	mov	x0, sp
	mrs 	x0,s3_0_c12_c12_0
    1f50:	d538cc00 	mrs	x0, s3_0_c12_c12_0
	bl	irq_return
    1f54:	9400004a 	bl	207c <irq_return>
	b	exception_exit
    1f58:	14000025 	b	1fec <exception_exit>

0000000000001f5c <_do_error>:

_do_error:
	exception_entry
    1f5c:	a9bf7bfd 	stp	x29, x30, [sp, #-16]!
    1f60:	a9bf73fb 	stp	x27, x28, [sp, #-16]!
    1f64:	a9bf6bf9 	stp	x25, x26, [sp, #-16]!
    1f68:	a9bf63f7 	stp	x23, x24, [sp, #-16]!
    1f6c:	a9bf5bf5 	stp	x21, x22, [sp, #-16]!
    1f70:	a9bf53f3 	stp	x19, x20, [sp, #-16]!
    1f74:	a9bf4bf1 	stp	x17, x18, [sp, #-16]!
    1f78:	a9bf43ef 	stp	x15, x16, [sp, #-16]!
    1f7c:	a9bf3bed 	stp	x13, x14, [sp, #-16]!
    1f80:	a9bf33eb 	stp	x11, x12, [sp, #-16]!
    1f84:	a9bf2be9 	stp	x9, x10, [sp, #-16]!
    1f88:	a9bf23e7 	stp	x7, x8, [sp, #-16]!
    1f8c:	a9bf1be5 	stp	x5, x6, [sp, #-16]!
    1f90:	a9bf13e3 	stp	x3, x4, [sp, #-16]!
    1f94:	a9bf0be1 	stp	x1, x2, [sp, #-16]!
    1f98:	d538424b 	mrs	x11, currentel
    1f9c:	f100317f 	cmp	x11, #0xc
    1fa0:	540000a0 	b.eq	1fb4 <_do_error+0x58>  // b.none
    1fa4:	f100217f 	cmp	x11, #0x8
    1fa8:	540000c0 	b.eq	1fc0 <_do_error+0x64>  // b.none
    1fac:	f100117f 	cmp	x11, #0x4
    1fb0:	540000e0 	b.eq	1fcc <_do_error+0x70>  // b.none
    1fb4:	d53e5201 	mrs	x1, esr_el3
    1fb8:	d53e4022 	mrs	x2, elr_el3
    1fbc:	14000006 	b	1fd4 <_do_error+0x78>
    1fc0:	d53c5201 	mrs	x1, esr_el2
    1fc4:	d53c4022 	mrs	x2, elr_el2
    1fc8:	14000003 	b	1fd4 <_do_error+0x78>
    1fcc:	d5385201 	mrs	x1, esr_el1
    1fd0:	d5384022 	mrs	x2, elr_el1
    1fd4:	a9bf03e2 	stp	x2, x0, [sp, #-16]!
    1fd8:	910003e0 	mov	x0, sp
	mov	x1,#0x8
    1fdc:	d2800101 	mov	x1, #0x8                   	// #8
	b	whl
    1fe0:	14000002 	b	1fe8 <whl>
	b	exception_exit
    1fe4:	14000002 	b	1fec <exception_exit>

0000000000001fe8 <whl>:
whl:
	b whl
    1fe8:	14000000 	b	1fe8 <whl>

0000000000001fec <exception_exit>:

exception_exit:
	ldp	x2, x0, [sp],#16
    1fec:	a8c103e2 	ldp	x2, x0, [sp], #16
	switch_el x11, 3f, 2f, 1f
    1ff0:	d538424b 	mrs	x11, currentel
    1ff4:	f100317f 	cmp	x11, #0xc
    1ff8:	540000a0 	b.eq	200c <exception_exit+0x20>  // b.none
    1ffc:	f100217f 	cmp	x11, #0x8
    2000:	540000a0 	b.eq	2014 <exception_exit+0x28>  // b.none
    2004:	f100117f 	cmp	x11, #0x4
    2008:	540000a0 	b.eq	201c <exception_exit+0x30>  // b.none
3:	msr	elr_el3, x2
    200c:	d51e4022 	msr	elr_el3, x2
	b	0f
    2010:	14000004 	b	2020 <exception_exit+0x34>
2:	msr	elr_el2, x2
    2014:	d51c4022 	msr	elr_el2, x2
	b	0f
    2018:	14000002 	b	2020 <exception_exit+0x34>
1:	msr	elr_el1, x2
    201c:	d5184022 	msr	elr_el1, x2
0:
	ldp	x1, x2, [sp],#16
    2020:	a8c10be1 	ldp	x1, x2, [sp], #16
	ldp	x3, x4, [sp],#16
    2024:	a8c113e3 	ldp	x3, x4, [sp], #16
	ldp	x5, x6, [sp],#16
    2028:	a8c11be5 	ldp	x5, x6, [sp], #16
	ldp	x7, x8, [sp],#16
    202c:	a8c123e7 	ldp	x7, x8, [sp], #16
	ldp	x9, x10, [sp],#16
    2030:	a8c12be9 	ldp	x9, x10, [sp], #16
	ldp	x11, x12, [sp],#16
    2034:	a8c133eb 	ldp	x11, x12, [sp], #16
	ldp	x13, x14, [sp],#16
    2038:	a8c13bed 	ldp	x13, x14, [sp], #16
	ldp	x15, x16, [sp],#16
    203c:	a8c143ef 	ldp	x15, x16, [sp], #16
	ldp	x17, x18, [sp],#16
    2040:	a8c14bf1 	ldp	x17, x18, [sp], #16
	ldp	x19, x20, [sp],#16
    2044:	a8c153f3 	ldp	x19, x20, [sp], #16
	ldp	x21, x22, [sp],#16
    2048:	a8c15bf5 	ldp	x21, x22, [sp], #16
	ldp	x23, x24, [sp],#16
    204c:	a8c163f7 	ldp	x23, x24, [sp], #16
	ldp	x25, x26, [sp],#16
    2050:	a8c16bf9 	ldp	x25, x26, [sp], #16
	ldp	x27, x28, [sp],#16
    2054:	a8c173fb 	ldp	x27, x28, [sp], #16
	ldp	x29, x30, [sp],#16
    2058:	a8c17bfd 	ldp	x29, x30, [sp], #16
	eret
    205c:	d69f03e0 	eret

0000000000002060 <clr_intr>:

clr_intr:
	msr s3_0_c12_c12_1,x0
    2060:	d518cc20 	msr	s3_0_c12_c12_1, x0
	msr s3_0_c12_c11_1,x0
    2064:	d518cb20 	msr	s3_0_c12_c11_1, x0
	and x0,x0,#0xfff
    2068:	92402c00 	and	x0, x0, #0xfff
	add x2,x0,#0x66
    206c:	91019802 	add	x2, x0, #0x66

/*	mov x2,#0x66
*/	mov x0,#0x18200000
    2070:	d2a30400 	mov	x0, #0x18200000            	// #404750336
	str x2,[x0]
    2074:	f9000002 	str	x2, [x0]
	ret
    2078:	d65f03c0 	ret

000000000000207c <irq_return>:
#include "uart_c.h"
extern void request_irq(unsigned int irq);
static struct uart_dat ud;

void irq_return(unsigned int irq)
{
    207c:	d10043ff 	sub	sp, sp, #0x10
    2080:	b9000fe0 	str	w0, [sp, #12]
	*(volatile unsigned int *)0x19400014 = 0x0;
    2084:	d2800280 	mov	x0, #0x14                  	// #20
    2088:	f2a32800 	movk	x0, #0x1940, lsl #16
    208c:	b900001f 	str	wzr, [x0]
}
    2090:	d503201f 	nop
    2094:	910043ff 	add	sp, sp, #0x10
    2098:	d65f03c0 	ret

000000000000209c <readl>:


unsigned int readl(unsigned long addr)
{
    209c:	d10083ff 	sub	sp, sp, #0x20
    20a0:	f90007e0 	str	x0, [sp, #8]
	unsigned int val;
	val = *(volatile unsigned int *)addr;
    20a4:	f94007e0 	ldr	x0, [sp, #8]
    20a8:	b9400000 	ldr	w0, [x0]
    20ac:	b9001fe0 	str	w0, [sp, #28]
	return val;
    20b0:	b9401fe0 	ldr	w0, [sp, #28]
}
    20b4:	910083ff 	add	sp, sp, #0x20
    20b8:	d65f03c0 	ret

00000000000020bc <read1>:

unsigned long read1(unsigned long addr)
{
    20bc:	d10083ff 	sub	sp, sp, #0x20
    20c0:	f90007e0 	str	x0, [sp, #8]
	unsigned long val;
	val = *(volatile unsigned long *)addr;
    20c4:	f94007e0 	ldr	x0, [sp, #8]
    20c8:	f9400000 	ldr	x0, [x0]
    20cc:	f9000fe0 	str	x0, [sp, #24]
	return val;
    20d0:	f9400fe0 	ldr	x0, [sp, #24]
}
    20d4:	910083ff 	add	sp, sp, #0x20
    20d8:	d65f03c0 	ret

00000000000020dc <writel>:

void writel(unsigned long addr, unsigned int val)
{
    20dc:	d10043ff 	sub	sp, sp, #0x10
    20e0:	f90007e0 	str	x0, [sp, #8]
    20e4:	b90007e1 	str	w1, [sp, #4]
	*(volatile unsigned int *)addr = val;
    20e8:	f94007e0 	ldr	x0, [sp, #8]
    20ec:	b94007e1 	ldr	w1, [sp, #4]
    20f0:	b9000001 	str	w1, [x0]
}
    20f4:	d503201f 	nop
    20f8:	910043ff 	add	sp, sp, #0x10
    20fc:	d65f03c0 	ret

0000000000002100 <writeq>:

void writeq(unsigned long addr, unsigned long val)
{
    2100:	d10043ff 	sub	sp, sp, #0x10
    2104:	f90007e0 	str	x0, [sp, #8]
    2108:	f90003e1 	str	x1, [sp]
	*(volatile unsigned long *)addr = val;
    210c:	f94007e0 	ldr	x0, [sp, #8]
    2110:	f94003e1 	ldr	x1, [sp]
    2114:	f9000001 	str	x1, [x0]
}
    2118:	d503201f 	nop
    211c:	910043ff 	add	sp, sp, #0x10
    2120:	d65f03c0 	ret

0000000000002124 <ckg_enable>:

void ckg_enable(struct uart_dat *up)
{
    2124:	a9bd7bfd 	stp	x29, x30, [sp, #-48]!
    2128:	910003fd 	mov	x29, sp
    212c:	f9000fa0 	str	x0, [x29, #24]
	unsigned int val;

	val = readl(up->apb_sys_base);
    2130:	f9400fa0 	ldr	x0, [x29, #24]
    2134:	f9400400 	ldr	x0, [x0, #8]
    2138:	97ffffd9 	bl	209c <readl>
    213c:	b9002fa0 	str	w0, [x29, #44]
	val |= up->ckg_en_bit;
    2140:	f9400fa0 	ldr	x0, [x29, #24]
    2144:	b9401000 	ldr	w0, [x0, #16]
    2148:	b9402fa1 	ldr	w1, [x29, #44]
    214c:	2a000020 	orr	w0, w1, w0
    2150:	b9002fa0 	str	w0, [x29, #44]
	writel(up->apb_sys_base, val);
    2154:	f9400fa0 	ldr	x0, [x29, #24]
    2158:	f9400400 	ldr	x0, [x0, #8]
    215c:	b9402fa1 	ldr	w1, [x29, #44]
    2160:	97ffffdf 	bl	20dc <writel>

	val = readl(up->apb_sys_base + 0x0004);
    2164:	f9400fa0 	ldr	x0, [x29, #24]
    2168:	f9400400 	ldr	x0, [x0, #8]
    216c:	91001000 	add	x0, x0, #0x4
    2170:	97ffffcb 	bl	209c <readl>
    2174:	b9002fa0 	str	w0, [x29, #44]
	val |= up->ckg_apb_en_bit;
    2178:	f9400fa0 	ldr	x0, [x29, #24]
    217c:	b9401400 	ldr	w0, [x0, #20]
    2180:	b9402fa1 	ldr	w1, [x29, #44]
    2184:	2a000020 	orr	w0, w1, w0
    2188:	b9002fa0 	str	w0, [x29, #44]
	writel(up->apb_sys_base + 0x0004, val);
    218c:	f9400fa0 	ldr	x0, [x29, #24]
    2190:	f9400400 	ldr	x0, [x0, #8]
    2194:	91001000 	add	x0, x0, #0x4
    2198:	b9402fa1 	ldr	w1, [x29, #44]
    219c:	97ffffd0 	bl	20dc <writel>
}
    21a0:	d503201f 	nop
    21a4:	a8c37bfd 	ldp	x29, x30, [sp], #48
    21a8:	d65f03c0 	ret

00000000000021ac <uart_init>:

void uart_init(struct uart_dat *up)
{
    21ac:	d10043ff 	sub	sp, sp, #0x10
    21b0:	f90007e0 	str	x0, [sp, #8]
	up->uart_base = UART_BASE(TEST_PORT);
    21b4:	f94007e0 	ldr	x0, [sp, #8]
    21b8:	d2a30601 	mov	x1, #0x18300000            	// #405798912
    21bc:	f9000001 	str	x1, [x0]
	up->apb_sys_base = APB_BASE;
    21c0:	f94007e0 	ldr	x0, [sp, #8]
    21c4:	d2a30001 	mov	x1, #0x18000000            	// #402653184
    21c8:	f9000401 	str	x1, [x0, #8]
	up->ckg_en_bit = UART_ENABLE(TEST_PORT);
    21cc:	f94007e0 	ldr	x0, [sp, #8]
    21d0:	52800041 	mov	w1, #0x2                   	// #2
    21d4:	b9001001 	str	w1, [x0, #16]
	up->ckg_apb_en_bit = UART_APB_ENABLE(TEST_PORT);
    21d8:	f94007e0 	ldr	x0, [sp, #8]
    21dc:	52800041 	mov	w1, #0x2                   	// #2
    21e0:	b9001401 	str	w1, [x0, #20]
	up->clk_source = CLK_HZ;
    21e4:	f94007e0 	ldr	x0, [sp, #8]
    21e8:	d286c001 	mov	x1, #0x3600                	// #13824
    21ec:	f2a02dc1 	movk	x1, #0x16e, lsl #16
    21f0:	f9000c01 	str	x1, [x0, #24]

	/* config pin mux */
	*(volatile unsigned int *)0x28200020 = 0x0;
    21f4:	d2800400 	mov	x0, #0x20                  	// #32
    21f8:	f2a50400 	movk	x0, #0x2820, lsl #16
    21fc:	b900001f 	str	wzr, [x0]
	*(volatile unsigned int *)0x28200024 = 0x0;
    2200:	d2800480 	mov	x0, #0x24                  	// #36
    2204:	f2a50400 	movk	x0, #0x2820, lsl #16
    2208:	b900001f 	str	wzr, [x0]
}
    220c:	d503201f 	nop
    2210:	910043ff 	add	sp, sp, #0x10
    2214:	d65f03c0 	ret

0000000000002218 <set_baudrate>:

void set_baudrate(struct uart_dat *up, unsigned int baud)
{
    2218:	a9bd7bfd 	stp	x29, x30, [sp, #-48]!
    221c:	910003fd 	mov	x29, sp
    2220:	f9000fa0 	str	x0, [x29, #24]
    2224:	b90017a1 	str	w1, [x29, #20]
	unsigned int div,val;

	val = readl(up->uart_base + UART_LCR);
    2228:	f9400fa0 	ldr	x0, [x29, #24]
    222c:	f9400000 	ldr	x0, [x0]
    2230:	91003000 	add	x0, x0, #0xc
    2234:	97ffff9a 	bl	209c <readl>
    2238:	b9002fa0 	str	w0, [x29, #44]
	val |= UART_LCR_DLAB;
    223c:	b9402fa0 	ldr	w0, [x29, #44]
    2240:	32190000 	orr	w0, w0, #0x80
    2244:	b9002fa0 	str	w0, [x29, #44]
	writel(up->uart_base + UART_LCR, val);
    2248:	f9400fa0 	ldr	x0, [x29, #24]
    224c:	f9400000 	ldr	x0, [x0]
    2250:	91003000 	add	x0, x0, #0xc
    2254:	b9402fa1 	ldr	w1, [x29, #44]
    2258:	97ffffa1 	bl	20dc <writel>

	div = (up->clk_source / baud + 8) / 16;
    225c:	f9400fa0 	ldr	x0, [x29, #24]
    2260:	f9400c01 	ldr	x1, [x0, #24]
    2264:	b94017a0 	ldr	w0, [x29, #20]
    2268:	9ac00820 	udiv	x0, x1, x0
    226c:	91002000 	add	x0, x0, #0x8
    2270:	d344fc00 	lsr	x0, x0, #4
    2274:	b9002ba0 	str	w0, [x29, #40]
	writel(up->uart_base + UART_DLL, div & 0xff);
    2278:	f9400fa0 	ldr	x0, [x29, #24]
    227c:	f9400002 	ldr	x2, [x0]
    2280:	b9402ba0 	ldr	w0, [x29, #40]
    2284:	12001c00 	and	w0, w0, #0xff
    2288:	2a0003e1 	mov	w1, w0
    228c:	aa0203e0 	mov	x0, x2
    2290:	97ffff93 	bl	20dc <writel>
	writel(up->uart_base + UART_DLH, (div & 0xff00) >> 8);
    2294:	f9400fa0 	ldr	x0, [x29, #24]
    2298:	f9400000 	ldr	x0, [x0]
    229c:	91001002 	add	x2, x0, #0x4
    22a0:	b9402ba0 	ldr	w0, [x29, #40]
    22a4:	53087c00 	lsr	w0, w0, #8
    22a8:	12001c00 	and	w0, w0, #0xff
    22ac:	2a0003e1 	mov	w1, w0
    22b0:	aa0203e0 	mov	x0, x2
    22b4:	97ffff8a 	bl	20dc <writel>

	val &= ~UART_LCR_DLAB;
    22b8:	b9402fa0 	ldr	w0, [x29, #44]
    22bc:	12187800 	and	w0, w0, #0xffffff7f
    22c0:	b9002fa0 	str	w0, [x29, #44]
	writel(up->uart_base + UART_LCR, val);
    22c4:	f9400fa0 	ldr	x0, [x29, #24]
    22c8:	f9400000 	ldr	x0, [x0]
    22cc:	91003000 	add	x0, x0, #0xc
    22d0:	b9402fa1 	ldr	w1, [x29, #44]
    22d4:	97ffff82 	bl	20dc <writel>
}
    22d8:	d503201f 	nop
    22dc:	a8c37bfd 	ldp	x29, x30, [sp], #48
    22e0:	d65f03c0 	ret

00000000000022e4 <set_line_ctrl>:
 *sotp bit:	1:1bit,2:1.5bit(only 5 bit data) or 2bit(only 6/7/8 bit data)
 *parity:	NONE/ODD/EVEN/MARK/SPACE
 */
void set_line_ctrl(struct uart_dat *up, unsigned int data,\
		 unsigned int stop, enum PARITY_TYPE par)
{
    22e4:	a9bc7bfd 	stp	x29, x30, [sp, #-64]!
    22e8:	910003fd 	mov	x29, sp
    22ec:	f90017a0 	str	x0, [x29, #40]
    22f0:	b90027a1 	str	w1, [x29, #36]
    22f4:	b90023a2 	str	w2, [x29, #32]
    22f8:	b9001fa3 	str	w3, [x29, #28]
	unsigned int val, tmp=0;
    22fc:	b9003fbf 	str	wzr, [x29, #60]

	switch(data) {
    2300:	b94027a0 	ldr	w0, [x29, #36]
    2304:	7100181f 	cmp	w0, #0x6
    2308:	54000140 	b.eq	2330 <set_line_ctrl+0x4c>  // b.none
    230c:	7100181f 	cmp	w0, #0x6
    2310:	54000068 	b.hi	231c <set_line_ctrl+0x38>  // b.pmore
    2314:	7100141f 	cmp	w0, #0x5
		case 5:
			tmp |= UART_LCR_WLEN5;
			break;
    2318:	14000012 	b	2360 <set_line_ctrl+0x7c>
	switch(data) {
    231c:	71001c1f 	cmp	w0, #0x7
    2320:	54000100 	b.eq	2340 <set_line_ctrl+0x5c>  // b.none
    2324:	7100201f 	cmp	w0, #0x8
    2328:	54000140 	b.eq	2350 <set_line_ctrl+0x6c>  // b.none
    232c:	1400000d 	b	2360 <set_line_ctrl+0x7c>
		case 6:
			tmp |= UART_LCR_WLEN6;
    2330:	b9403fa0 	ldr	w0, [x29, #60]
    2334:	32000000 	orr	w0, w0, #0x1
    2338:	b9003fa0 	str	w0, [x29, #60]
			break;
    233c:	14000009 	b	2360 <set_line_ctrl+0x7c>
		case 7:
			tmp |= UART_LCR_WLEN7;
    2340:	b9403fa0 	ldr	w0, [x29, #60]
    2344:	321f0000 	orr	w0, w0, #0x2
    2348:	b9003fa0 	str	w0, [x29, #60]
			break;
    234c:	14000005 	b	2360 <set_line_ctrl+0x7c>
		case 8:
			tmp |= UART_LCR_WLEN8;
    2350:	b9403fa0 	ldr	w0, [x29, #60]
    2354:	32000400 	orr	w0, w0, #0x3
    2358:	b9003fa0 	str	w0, [x29, #60]
			break;
    235c:	d503201f 	nop
	}

	if(stop == 2)
    2360:	b94023a0 	ldr	w0, [x29, #32]
    2364:	7100081f 	cmp	w0, #0x2
    2368:	54000081 	b.ne	2378 <set_line_ctrl+0x94>  // b.any
		tmp |= UART_LCR_STOP;
    236c:	b9403fa0 	ldr	w0, [x29, #60]
    2370:	321e0000 	orr	w0, w0, #0x4
    2374:	b9003fa0 	str	w0, [x29, #60]

	switch(par) {
    2378:	b9401fa0 	ldr	w0, [x29, #28]
    237c:	71000c1f 	cmp	w0, #0x3
    2380:	54000220 	b.eq	23c4 <set_line_ctrl+0xe0>  // b.none
    2384:	71000c1f 	cmp	w0, #0x3
    2388:	540000c8 	b.hi	23a0 <set_line_ctrl+0xbc>  // b.pmore
    238c:	7100041f 	cmp	w0, #0x1
    2390:	54000340 	b.eq	23f8 <set_line_ctrl+0x114>  // b.none
    2394:	7100081f 	cmp	w0, #0x2
    2398:	540000e0 	b.eq	23b4 <set_line_ctrl+0xd0>  // b.none
    239c:	14000018 	b	23fc <set_line_ctrl+0x118>
    23a0:	7100101f 	cmp	w0, #0x4
    23a4:	54000180 	b.eq	23d4 <set_line_ctrl+0xf0>  // b.none
    23a8:	7100141f 	cmp	w0, #0x5
    23ac:	540001e0 	b.eq	23e8 <set_line_ctrl+0x104>  // b.none
    23b0:	14000013 	b	23fc <set_line_ctrl+0x118>
		case NONE:
			break;
		case ODD:
			tmp |= UART_LCR_PARITY;
    23b4:	b9403fa0 	ldr	w0, [x29, #60]
    23b8:	321d0000 	orr	w0, w0, #0x8
    23bc:	b9003fa0 	str	w0, [x29, #60]
			break;
    23c0:	1400000f 	b	23fc <set_line_ctrl+0x118>
		case EVEN:
			tmp |= UART_LCR_PARITY | UART_LCR_EPAR;
    23c4:	b9403fa0 	ldr	w0, [x29, #60]
    23c8:	321d0400 	orr	w0, w0, #0x18
    23cc:	b9003fa0 	str	w0, [x29, #60]
			break;
    23d0:	1400000b 	b	23fc <set_line_ctrl+0x118>
		case MARK:
			tmp |= UART_LCR_PARITY | UART_LCR_SPAR;
    23d4:	b9403fa1 	ldr	w1, [x29, #60]
    23d8:	52800500 	mov	w0, #0x28                  	// #40
    23dc:	2a000020 	orr	w0, w1, w0
    23e0:	b9003fa0 	str	w0, [x29, #60]
			break;
    23e4:	14000006 	b	23fc <set_line_ctrl+0x118>
		case SPACE:
			tmp |= UART_LCR_PARITY | UART_LCR_EPAR | UART_LCR_SPAR;
    23e8:	b9403fa0 	ldr	w0, [x29, #60]
    23ec:	321d0800 	orr	w0, w0, #0x38
    23f0:	b9003fa0 	str	w0, [x29, #60]
			break;
    23f4:	14000002 	b	23fc <set_line_ctrl+0x118>
			break;
    23f8:	d503201f 	nop
	}

	val = readl(up->uart_base + UART_LCR);
    23fc:	f94017a0 	ldr	x0, [x29, #40]
    2400:	f9400000 	ldr	x0, [x0]
    2404:	91003000 	add	x0, x0, #0xc
    2408:	97ffff25 	bl	209c <readl>
    240c:	b9003ba0 	str	w0, [x29, #56]
	val &= ~GENMASK(5, 0);
    2410:	b9403ba0 	ldr	w0, [x29, #56]
    2414:	121a6400 	and	w0, w0, #0xffffffc0
    2418:	b9003ba0 	str	w0, [x29, #56]
	val |= tmp;
    241c:	b9403ba1 	ldr	w1, [x29, #56]
    2420:	b9403fa0 	ldr	w0, [x29, #60]
    2424:	2a000020 	orr	w0, w1, w0
    2428:	b9003ba0 	str	w0, [x29, #56]
	writel(up->uart_base + UART_LCR, val);
    242c:	f94017a0 	ldr	x0, [x29, #40]
    2430:	f9400000 	ldr	x0, [x0]
    2434:	91003000 	add	x0, x0, #0xc
    2438:	b9403ba1 	ldr	w1, [x29, #56]
    243c:	97ffff28 	bl	20dc <writel>
}
    2440:	d503201f 	nop
    2444:	a8c47bfd 	ldp	x29, x30, [sp], #64
    2448:	d65f03c0 	ret

000000000000244c <echo_test>:


void echo_test(struct uart_dat *up)
{
    244c:	a9bd7bfd 	stp	x29, x30, [sp, #-48]!
    2450:	910003fd 	mov	x29, sp
    2454:	f9000fa0 	str	x0, [x29, #24]
	unsigned int val;
//	enum PARITY_TYPE par;
	unsigned int lsr;

	/* enable clock */
	ckg_enable(up);
    2458:	f9400fa0 	ldr	x0, [x29, #24]
    245c:	97ffff32 	bl	2124 <ckg_enable>

	/* set baudrate in uart1 */
	set_baudrate(up, 115200);
    2460:	52984001 	mov	w1, #0xc200                	// #49664
    2464:	72a00021 	movk	w1, #0x1, lsl #16
    2468:	f9400fa0 	ldr	x0, [x29, #24]
    246c:	97ffff6b 	bl	2218 <set_baudrate>


	/* set line: 8bit data, 1bit stop, 0bit parity*/
//	par = EVEN;
	set_line_ctrl(up, 6, 1, EVEN);
    2470:	52800063 	mov	w3, #0x3                   	// #3
    2474:	52800022 	mov	w2, #0x1                   	// #1
    2478:	528000c1 	mov	w1, #0x6                   	// #6
    247c:	f9400fa0 	ldr	x0, [x29, #24]
    2480:	97ffff99 	bl	22e4 <set_line_ctrl>

#if 0
	*(volatile unsigned int *)0x1000104 = 0x1;
	*(volatile unsigned long *)0x1006100 = 0x0ULL;
#else
	request_irq(32);
    2484:	52800400 	mov	w0, #0x20                  	// #32
    2488:	97fff743 	bl	194 <request_irq>
#endif
	*(volatile unsigned int *)0x19400000 = 0xffff;
    248c:	d2a32800 	mov	x0, #0x19400000            	// #423624704
    2490:	529fffe1 	mov	w1, #0xffff                	// #65535
    2494:	b9000001 	str	w1, [x0]
	*(volatile unsigned int *)0x19400010 = 0xffff;
    2498:	d2800200 	mov	x0, #0x10                  	// #16
    249c:	f2a32800 	movk	x0, #0x1940, lsl #16
    24a0:	529fffe1 	mov	w1, #0xffff                	// #65535
    24a4:	b9000001 	str	w1, [x0]
	*(volatile unsigned int *)0x19400014 = 0x1;
    24a8:	d2800280 	mov	x0, #0x14                  	// #20
    24ac:	f2a32800 	movk	x0, #0x1940, lsl #16
    24b0:	52800021 	mov	w1, #0x1                   	// #1
    24b4:	b9000001 	str	w1, [x0]

	while(1)
	{
		lsr = readl(up->uart_base + 0x14);
    24b8:	f9400fa0 	ldr	x0, [x29, #24]
    24bc:	f9400000 	ldr	x0, [x0]
    24c0:	91005000 	add	x0, x0, #0x14
    24c4:	97fffef6 	bl	209c <readl>
    24c8:	b9002fa0 	str	w0, [x29, #44]
		if(lsr & 0x1) {
    24cc:	b9402fa0 	ldr	w0, [x29, #44]
    24d0:	12000000 	and	w0, w0, #0x1
    24d4:	7100001f 	cmp	w0, #0x0
    24d8:	54ffff00 	b.eq	24b8 <echo_test+0x6c>  // b.none
//			if(lsr & 0xe)
//				continue;
			val = *(volatile unsigned int *)0x18300000;
    24dc:	d2a30600 	mov	x0, #0x18300000            	// #405798912
    24e0:	b9400000 	ldr	w0, [x0]
    24e4:	b9002ba0 	str	w0, [x29, #40]
			*(volatile unsigned int *)0x18300000 = val;
    24e8:	d2a30600 	mov	x0, #0x18300000            	// #405798912
    24ec:	b9402ba1 	ldr	w1, [x29, #40]
    24f0:	b9000001 	str	w1, [x0]
		lsr = readl(up->uart_base + 0x14);
    24f4:	17fffff1 	b	24b8 <echo_test+0x6c>

00000000000024f8 <main>:
	}
}


int main(void)
{
    24f8:	a9be7bfd 	stp	x29, x30, [sp, #-32]!
    24fc:	910003fd 	mov	x29, sp


	struct uart_dat *up = &ud;
    2500:	90000000 	adrp	x0, 2000 <exception_exit+0x14>
    2504:	91150000 	add	x0, x0, #0x540
    2508:	f9000fa0 	str	x0, [x29, #24]
	enum TEST_ID tst_id;
	uart_init(up);
    250c:	f9400fa0 	ldr	x0, [x29, #24]
    2510:	97ffff27 	bl	21ac <uart_init>

	tst_id = TEST_TYPE;
    2514:	52800020 	mov	w0, #0x1                   	// #1
    2518:	b90017a0 	str	w0, [x29, #20]
	switch(tst_id) {
    251c:	b94017a0 	ldr	w0, [x29, #20]
    2520:	7100041f 	cmp	w0, #0x1
    2524:	54000081 	b.ne	2534 <main+0x3c>  // b.any
		case ECHO_TEST:
			/* echo test */
			echo_test(up);
    2528:	f9400fa0 	ldr	x0, [x29, #24]
    252c:	97ffffc8 	bl	244c <echo_test>
			break;
    2530:	d503201f 	nop
	}

	return 0;
    2534:	52800000 	mov	w0, #0x0                   	// #0
}
    2538:	a8c27bfd 	ldp	x29, x30, [sp], #32
    253c:	d65f03c0 	ret
